(dp0
S'ev_008_st_006.html'
p1
(dp2
S'TITLE'
p3
S'Blast in Imphal, two troopers injured'
p4
sS'CONTENT'
p5
S'The two Assam Rifles troopers were on routine patrolling on Wednesday when the blast hit them in the Keisampat area, a few kilometres from the Manipur Police headquarters. Their condition is stated to be stable, an Assam Rifles official said. .\n\n. A security alert has been sounded and Keisampat has been cordoned off, Imphal district police chief Konsam Jayanta Singh told IANS. He said preliminary reports suggested that the blast could have been triggered by an Improvised Explosive Device. "We have found the wreckage of a scooter from the blast site," he said. .\n\n. No arrests had been made so far, he added. .\n\n. Though no rebel group has claimed responsibility for the blasts, Manipur Police and intelligence officials said the blasts were carried out by rebels. .\n\n. On Monday, a youth was killed in a village of Manipur\'s Thoubal district after a bomb, suspected to have been planted by militants, went off at his house. .\n\n. There are more than 20 rebel outfits in Manipur with demands ranging from secession to greater autonomy. .\n\n. '
p6
sS'LINK'
p7
S'http://www.assamtribune.com/scripts/detailsnew.asp?id=sep0512/at043'
p8
sS'LOCATION'
p9
V Wednesday, September 05 2012
p10
sS'TIME'
p11
F0.7729663394109397
sS'NER'
p12
(dp13
S'LOC'
p14
(lp15
VImphal
p16
aVManipur
p17
aVThoubal
p18
aVImphal
p19
asS'PER'
p20
(lp21
VKonsam Jayanta Singh
p22
asS'KEYWORDS'
p23
(lp24
Vtwo
p25
aVAssam
p26
aVRifles
p27
aVtroopers
p28
aVroutine
p29
aVpatrolling
p30
aVblast
p31
aVhit
p32
aVKeisampat
p33
aVarea
p34
aVkilometres
p35
aVManipur
p36
aVPolice
p37
aVheadquarters
p38
aVcondition
p39
aVstated
p40
aVstable
p41
aVAssam
p42
aVRifles
p43
aVofficial
p44
aVsaid
p45
aVsecurity
p46
aValert
p47
aVsounded
p48
aVKeisampat
p49
aVcordoned
p50
aVdistrict
p51
aVpolice
p52
aVchief
p53
aVtold
p54
aVIANS
p55
aVsaid
p56
aVpreliminary
p57
aVreports
p58
aVsuggested
p59
aVblast
p60
aVcould
p61
aVtriggered
p62
aVImprovised
p63
aVExplosive
p64
aVDevice
p65
aVfound
p66
aVwreckage
p67
aVscooter
p68
aVblast
p69
aVsite
p70
aVsaid
p71
aVarrests
p72
aVmade
p73
aVfar
p74
aVadded
p75
aVThough
p76
aVrebel
p77
aVgroup
p78
aVclaimed
p79
aVresponsibility
p80
aVblasts
p81
aVManipur
p82
aVPolice
p83
aVintelligence
p84
aVofficials
p85
aVsaid
p86
aVblasts
p87
aVcarried
p88
aVrebels
p89
aVyouth
p90
aVkilled
p91
aVvillage
p92
aV's
p93
aVdistrict
p94
aVbomb
p95
aVsuspected
p96
aVplanted
p97
aVmilitants
p98
aVwent
p99
aVhouse
p100
aV20
p101
aVrebel
p102
aVoutfits
p103
aVManipur
p104
aVdemands
p105
aVranging
p106
aVsecession
p107
aVgreater
p108
aVautonomy
p109
aVBlast
p110
aVtwo
p111
aVtroopers
p112
aVinjured
p113
asS'TIME'
p114
(lp115
sS'DATE'
p116
(lp117
VWednesday
p118
aVMonday
p119
asS'ORG'
p120
(lp121
sS'OT'
p122
(lp123
VThe
p124
ag25
ag26
ag27
ag28
aVwere
p125
aVon
p126
ag29
ag30
aVon
p127
aVwhen
p128
aVthe
p129
ag31
ag32
aVthem
p130
aVin
p131
aVthe
p132
ag33
ag34
aV,
p133
aVa
p134
aVfew
p135
ag35
aVfrom
p136
aVthe
p137
ag36
ag37
ag38
aV.
p138
aVTheir
p139
ag39
aVis
p140
ag40
aVto
p141
aVbe
p142
ag41
aV,
p143
aVan
p144
ag42
ag43
ag44
ag45
aV.
p145
aV.
p146
aV.
p147
aVA
p148
ag46
ag47
aVhas
p149
aVbeen
p150
ag48
aVand
p151
ag49
aVhas
p152
aVbeen
p153
ag50
aVoff
p154
aV,
p155
ag51
ag52
ag53
ag54
ag55
aV.
p156
aVHe
p157
ag56
ag57
ag58
ag59
aVthat
p158
aVthe
p159
ag60
ag61
aVhave
p160
aVbeen
p161
ag62
aVby
p162
aVan
p163
ag63
ag64
ag65
aV.
p164
aV``
p165
aVWe
p166
aVhave
p167
ag66
aVthe
p168
ag67
aVof
p169
aVa
p170
ag68
aVfrom
p171
aVthe
p172
ag69
ag70
aV,
p173
aV''
p174
aVhe
p175
ag71
aV.
p176
aV.
p177
aV.
p178
aVNo
p179
ag72
aVhad
p180
aVbeen
p181
ag73
aVso
p182
ag74
aV,
p183
aVhe
p184
ag75
aV.
p185
aV.
p186
aV.
p187
ag76
aVno
p188
ag77
ag78
aVhas
p189
ag79
ag80
aVfor
p190
aVthe
p191
ag81
aV,
p192
ag82
ag83
aVand
p193
ag84
ag85
ag86
aVthe
p194
ag87
aVwere
p195
ag88
aVout
p196
aVby
p197
ag89
aV.
p198
aV.
p199
aV.
p200
aVOn
p201
aV,
p202
aVa
p203
ag90
aVwas
p204
ag91
aVin
p205
aVa
p206
ag92
aVof
p207
ag93
ag94
aVafter
p208
aVa
p209
ag95
aV,
p210
ag96
aVto
p211
aVhave
p212
aVbeen
p213
ag97
aVby
p214
ag98
aV,
p215
ag99
aVoff
p216
aVat
p217
aVhis
p218
ag100
aV.
p219
aV.
p220
aV.
p221
aVThere
p222
aVare
p223
aVmore
p224
aVthan
p225
ag101
ag102
ag103
aVin
p226
ag104
aVwith
p227
ag105
ag106
aVfrom
p228
ag107
aVto
p229
ag108
ag109
aV.
p230
aV.
p231
aV.
p232
ag110
aVin
p233
aV,
p234
ag111
ag112
ag113
aV.
p235
asS'ONS'
p236
(lp237
g25
ag26
ag27
ag28
ag29
ag30
ag31
ag32
ag33
ag34
ag35
ag36
ag37
ag38
ag39
ag40
ag41
ag42
ag43
ag44
ag45
ag46
ag47
ag48
ag49
ag50
ag51
ag52
ag53
ag54
ag55
ag56
ag57
ag58
ag59
ag60
ag61
ag62
ag63
ag64
ag65
ag66
ag67
ag68
ag69
ag70
ag71
ag72
ag73
ag74
ag75
ag76
ag77
ag78
ag79
ag80
ag81
ag82
ag83
ag84
ag85
ag86
ag87
ag88
ag89
ag90
ag91
ag92
ag93
ag94
ag95
ag96
ag97
ag98
ag99
ag100
ag101
ag102
ag103
ag104
ag105
ag106
ag107
ag108
ag109
ag110
ag111
ag112
ag113
asssS'ev_008_st_003.html'
p238
(dp239
S'TITLE'
p240
S'Manipur explosion injures two policemen'
p241
sS'CONTENT'
p242
S"Two paramilitary policemen have been injured in a blast in Imphal, the capital of India's troubled north-eastern Manipur state. .\n\n. The Assam Rifles personnel were on a patrol in Keishampet locality when explosives placed in a two-wheeler scooter went off, police said. .\n\n. Reports said the condition of one of the injured policemen was serious. .\n\n. The state of Manipur borders Burma and has many separatist groups fighting for independence from India. .\n\n. But, it was not known which of the groups was behind the explosion. .\n\n. Keishampet is known to be a stronghold of the separatist group Peoples' Liberation Army (PLA) of Manipur and is known to be close to India's Maoist rebels. .\n\n. "
p243
sS'LINK'
p244
S'http://www.bbc.com/news/world-asia-india-19486172'
p245
sS'LOCATION'
p246
NsS'TIME'
p247
F0.7729663394109397
sg12
(dp248
g14
(lp249
VImphal
p250
aVBurma
p251
aVIndia
p252
aVIndia
p253
asg20
(lp254
sg23
(lp255
VTwo
p256
aVparamilitary
p257
aVpolicemen
p258
aVinjured
p259
aVblast
p260
aVcapital
p261
aVIndia
p262
aV's
p263
aVtroubled
p264
aVnorth-eastern
p265
aVManipur
p266
aVstate
p267
aVAssam
p268
aVRifles
p269
aVpersonnel
p270
aVpatrol
p271
aVKeishampet
p272
aVlocality
p273
aVexplosives
p274
aVplaced
p275
aVtwo-wheeler
p276
aVscooter
p277
aVwent
p278
aVpolice
p279
aVsaid
p280
aVReports
p281
aVsaid
p282
aVcondition
p283
aVone
p284
aVinjured
p285
aVpolicemen
p286
aVserious
p287
aVstate
p288
aVManipur
p289
aVborders
p290
aVmany
p291
aVseparatist
p292
aVgroups
p293
aVfighting
p294
aVindependence
p295
aVknown
p296
aVgroups
p297
aVbehind
p298
aVexplosion
p299
aVKeishampet
p300
aVknown
p301
aVstronghold
p302
aVseparatist
p303
aVgroup
p304
aVPeoples
p305
aVLiberation
p306
aVArmy
p307
aVPLA
p308
aVManipur
p309
aVknown
p310
aVclose
p311
aV's
p312
aVMaoist
p313
aVrebels
p314
aVManipur
p315
aVexplosion
p316
aVinjures
p317
aVtwo
p318
aVpolicemen
p319
asg114
(lp320
sg116
(lp321
sg120
(lp322
sg122
(lp323
g256
ag257
ag258
aVhave
p324
aVbeen
p325
ag259
aVin
p326
aVa
p327
ag260
aVin
p328
aV,
p329
aVthe
p330
ag261
aVof
p331
ag262
ag263
ag264
ag265
ag266
ag267
aV.
p332
aV.
p333
aV.
p334
aVThe
p335
ag268
ag269
ag270
aVwere
p336
aVon
p337
aVa
p338
ag271
aVin
p339
ag272
ag273
aVwhen
p340
ag274
ag275
aVin
p341
aVa
p342
ag276
ag277
ag278
aVoff
p343
aV,
p344
ag279
ag280
aV.
p345
aV.
p346
aV.
p347
ag281
ag282
aVthe
p348
ag283
aVof
p349
ag284
aVof
p350
aVthe
p351
ag285
ag286
aVwas
p352
ag287
aV.
p353
aV.
p354
aV.
p355
aVThe
p356
ag288
aVof
p357
ag289
ag290
aVand
p358
aVhas
p359
ag291
ag292
ag293
ag294
aVfor
p360
ag295
aVfrom
p361
aV.
p362
aV.
p363
aV.
p364
aVBut
p365
aV,
p366
aVit
p367
aVwas
p368
aVnot
p369
ag296
aVwhich
p370
aVof
p371
aVthe
p372
ag297
aVwas
p373
ag298
aVthe
p374
ag299
aV.
p375
aV.
p376
aV.
p377
ag300
aVis
p378
ag301
aVto
p379
aVbe
p380
aVa
p381
ag302
aVof
p382
aVthe
p383
ag303
ag304
ag305
aV'
p384
ag306
ag307
aV-LRB-
p385
ag308
aV-RRB-
p386
aVof
p387
ag309
aVand
p388
aVis
p389
ag310
aVto
p390
aVbe
p391
ag311
aVto
p392
ag312
ag313
ag314
aV.
p393
aV.
p394
aV.
p395
ag315
ag316
ag317
ag318
ag319
aV.
p396
asg236
(lp397
g256
ag257
ag258
ag259
ag260
ag261
ag262
ag263
ag264
ag265
ag266
ag267
ag268
ag269
ag270
ag271
ag272
ag273
ag274
ag275
ag276
ag277
ag278
ag279
ag280
ag281
ag282
ag283
ag284
ag285
ag286
ag287
ag288
ag289
ag290
ag291
ag292
ag293
ag294
ag295
ag296
ag297
ag298
ag299
ag300
ag301
ag302
ag303
ag304
ag305
ag306
ag307
ag308
ag309
ag310
ag311
ag312
ag313
ag314
ag315
ag316
ag317
ag318
ag319
asssS'ev_001_st_008.html'
p398
(dp399
S'TITLE'
p400
S'13 injured in ULFA bomb blast in Assam'
p401
sS'CONTENT'
p402
S"Thirteen persons were injured, three of them seriously, in a powerful bomb explosion by ULFA in Lower Assam's Bongaigaon district this morning, police said. .\n\n. The Programmable Time Device (PTD) was kept concealed inside a bicycle in Bongaigaon town's Paglathan Bazar. .\n\n. The bomb went off at 9.30 am. When the area near rail gate was busy with shoppers creating chaos. People ran in panic and shop keepers downed their shutters. .\n\n. The area has been cordened off, police said, adding the injured had been admitted to hospital where the condition of three was stated to be serious. .\n\n. On Friday, the ULFA triggered a powerful blast at Fancy Bazar in Guwahati, targetting Hindi-speaking businessmen and injuring five persons. .\n\n. A terror attack was averted on Sunday with the recovery of a bomb containing one kilogram of RDX near the main fish market of Assam's Jorhat district. .\n\n. "
p403
sS'LINK'
p404
S'http://www.hindustantimes.com/india/13-injured-in-ulfa-bomb-blast-in-assam/story-K8n5g30JEsekLXNf7FHKmK.html'
p405
sS'LOCATION'
p406
V Guwahati
p407
sS'TIME'
p408
F0.43390603085553997
sg12
(dp409
g14
(lp410
VAssam
p411
aVBongaigaon
p412
aVBongaigaon
p413
aVPaglathan Bazar
p414
aVGuwahati
p415
aVAssam
p416
aVJorhat
p417
aVAssam
p418
asg20
(lp419
sg23
(lp420
VThirteen
p421
aVpersons
p422
aVinjured
p423
aVthree
p424
aVseriously
p425
aVpowerful
p426
aVbomb
p427
aVexplosion
p428
aVLower
p429
aV's
p430
aVdistrict
p431
aVmorning
p432
aVpolice
p433
aVsaid
p434
aVProgrammable
p435
aVTime
p436
aVDevice
p437
aVPTD
p438
aVkept
p439
aVconcealed
p440
aVinside
p441
aVbicycle
p442
aVtown
p443
aV's
p444
aVbomb
p445
aVwent
p446
aV9.30
p447
aVarea
p448
aVnear
p449
aVrail
p450
aVgate
p451
aVbusy
p452
aVshoppers
p453
aVcreating
p454
aVchaos
p455
aVPeople
p456
aVran
p457
aVpanic
p458
aVshop
p459
aVkeepers
p460
aVdowned
p461
aVshutters
p462
aVarea
p463
aVcordened
p464
aVpolice
p465
aVsaid
p466
aVadding
p467
aVinjured
p468
aVadmitted
p469
aVhospital
p470
aVcondition
p471
aVthree
p472
aVstated
p473
aVserious
p474
aVULFA
p475
aVtriggered
p476
aVpowerful
p477
aVblast
p478
aVFancy
p479
aVBazar
p480
aVtargetting
p481
aVHindi-speaking
p482
aVbusinessmen
p483
aVinjuring
p484
aVfive
p485
aVpersons
p486
aVterror
p487
aVattack
p488
aVaverted
p489
aVrecovery
p490
aVbomb
p491
aVcontaining
p492
aVone
p493
aVkilogram
p494
aVRDX
p495
aVnear
p496
aVmain
p497
aVfish
p498
aVmarket
p499
aV's
p500
aVdistrict
p501
aV.13
p502
aVinjured
p503
aVULFA
p504
aVbomb
p505
aVblast
p506
asg114
(lp507
sg116
(lp508
VFriday
p509
aVSunday
p510
asg120
(lp511
VULFA
p512
asg122
(lp513
g421
ag422
aVwere
p514
ag423
aV,
p515
ag424
aVof
p516
aVthem
p517
ag425
aV,
p518
aVin
p519
aVa
p520
ag426
ag427
ag428
aVby
p521
aVin
p522
ag429
ag430
ag431
aVthis
p523
ag432
aV,
p524
ag433
ag434
aV.
p525
aV.
p526
aV.
p527
aVThe
p528
ag435
ag436
ag437
aV-LRB-
p529
ag438
aV-RRB-
p530
aVwas
p531
ag439
ag440
ag441
aVa
p532
ag442
aVin
p533
ag443
ag444
aV.
p534
aV.
p535
aV.
p536
aVThe
p537
ag445
ag446
aVoff
p538
aVat
p539
ag447
aVam
p540
aV.
p541
aVWhen
p542
aVthe
p543
ag448
ag449
ag450
ag451
aVwas
p544
ag452
aVwith
p545
ag453
ag454
ag455
aV.
p546
ag456
ag457
aVin
p547
ag458
aVand
p548
ag459
ag460
ag461
aVtheir
p549
ag462
aV.
p550
aV.
p551
aV.
p552
aVThe
p553
ag463
aVhas
p554
aVbeen
p555
ag464
aVoff
p556
aV,
p557
ag465
ag466
aV,
p558
ag467
aVthe
p559
ag468
aVhad
p560
aVbeen
p561
ag469
aVto
p562
ag470
aVwhere
p563
aVthe
p564
ag471
aVof
p565
ag472
aVwas
p566
ag473
aVto
p567
aVbe
p568
ag474
aV.
p569
aV.
p570
aV.
p571
aVOn
p572
aV,
p573
aVthe
p574
ag475
ag476
aVa
p575
ag477
ag478
aVat
p576
ag479
ag480
aVin
p577
aV,
p578
ag481
ag482
ag483
aVand
p579
ag484
ag485
ag486
aV.
p580
aV.
p581
aV.
p582
aVA
p583
ag487
ag488
aVwas
p584
ag489
aVon
p585
aVwith
p586
aVthe
p587
ag490
aVof
p588
aVa
p589
ag491
ag492
ag493
ag494
aVof
p590
ag495
ag496
aVthe
p591
ag497
ag498
ag499
aVof
p592
ag500
ag501
aV.
p593
aV.
p594
ag502
ag503
aVin
p595
ag504
ag505
ag506
aVin
p596
aV.
p597
asg236
(lp598
g421
ag422
ag423
ag424
ag425
ag426
ag427
ag428
ag429
ag430
ag431
ag432
ag433
ag434
ag435
ag436
ag437
ag438
ag439
ag440
ag441
ag442
ag443
ag444
ag445
ag446
ag447
ag448
ag449
ag450
ag451
ag452
ag453
ag454
ag455
ag456
ag457
ag458
ag459
ag460
ag461
ag462
ag463
ag464
ag465
ag466
ag467
ag468
ag469
ag470
ag471
ag472
ag473
ag474
ag475
ag476
ag477
ag478
ag479
ag480
ag481
ag482
ag483
ag484
ag485
ag486
ag487
ag488
ag489
ag490
ag491
ag492
ag493
ag494
ag495
ag496
ag497
ag498
ag499
ag500
ag501
ag502
ag503
ag504
ag505
ag506
asssS'ev_001_st_001.html'
p599
(dp600
S'TITLE'
p601
S'15 hurt in blast'
p602
sS'CONTENT'
p603
S"Special Correspondent .\n\n. Guwahati: Fifteen persons, including four school children, were injured in a bomb blast suspected to have been triggered by the United Liberation Front of Asom (ULFA) in lower Assam's Bongaigaon town on Monday morning. .\n\n. Police said the blast occurred near the office of the Superintendent of Police around 9:25 a.m. The bomb was planted in a bicycle"
p604
sS'LINK'
p605
S'http://www.thehindu.com/todays-paper/tp-national/15-hurt-in-blast/article1845550.ece'
p606
sS'LOCATION'
p607
VGuwahati:
p608
sS'TIME'
p609
F0.4340813464235624
sg12
(dp610
g14
(lp611
VGuwahati
p612
aVAssam
p613
aVBongaigaon
p614
asg20
(lp615
sg23
(lp616
VSpecial
p617
aVCorrespondent
p618
aVFifteen
p619
aVpersons
p620
aVincluding
p621
aVfour
p622
aVschool
p623
aVchildren
p624
aVinjured
p625
aVbomb
p626
aVblast
p627
aVsuspected
p628
aVtriggered
p629
aVAsom
p630
aVlower
p631
aV's
p632
aVtown
p633
aVmorning
p634
aVPolice
p635
aVsaid
p636
aVblast
p637
aVoccurred
p638
aVnear
p639
aVoffice
p640
aVSuperintendent
p641
aVPolice
p642
aVaround
p643
aVbomb
p644
aVplanted
p645
aVbicycle15
p646
aVhurt
p647
aVblast
p648
asg114
(lp649
V9
p650
asg116
(lp651
VMonday
p652
asg120
(lp653
VUnited Liberation Front
p654
aVULFA
p655
asg122
(lp656
g617
ag618
aV.
p657
aV.
p658
aV
p659
ag619
ag620
aV,
p660
ag621
ag622
ag623
ag624
aV,
p661
aVwere
p662
ag625
aVin
p663
aVa
p664
ag626
ag627
ag628
aVto
p665
aVhave
p666
aVbeen
p667
ag629
aVby
p668
aVthe
p669
aVof
p670
ag630
aV-LRB-
p671
aV-RRB-
p672
aVin
p673
ag631
ag632
ag633
aVon
p674
ag634
aV.
p675
aV.
p676
aV.
p677
ag635
ag636
aVthe
p678
ag637
ag638
ag639
aVthe
p679
ag640
aVof
p680
aVthe
p681
ag641
aVof
p682
ag642
ag643
aV.
p683
aVThe
p684
ag644
aVwas
p685
ag645
aVin
p686
aVa
p687
ag646
ag647
aVin
p688
ag648
aV.
p689
asg236
(lp690
g617
ag618
ag619
ag620
ag621
ag622
ag623
ag624
ag625
ag626
ag627
ag628
ag629
ag630
ag631
ag632
ag633
ag634
ag635
ag636
ag637
ag638
ag639
ag640
ag641
ag642
ag643
ag644
ag645
ag646
ag647
ag648
asssS'ev_014_st_004.html'
p691
(dp692
g601
S'ULFA owns responsibility'
p693
sg603
S'Front Page                 ULFA owns responsibility .\n\n. GUWAHATI,                                                                                                                        AUG. 17.                                                            The banned ULFA has owned responsibility for the Independence Day bomb blast in Dhemaji district in Assam in which 13 persons were killed.   PTI Printer friendly pageSend this article to Friends by E-MailFront PageNews: Front Page | National | Tamil Nadu | Andhra Pradesh | Karnataka | Kerala | New Delhi | Other States | International | Opinion | Business | Sport | Miscellaneous | Advts: Classifieds | Employment | Obituary |             Updates: Breaking News | .\n\n. Printer friendly pageSend this article to Friends by E-MailFront PageNews: Front Page | National | Tamil Nadu | Andhra Pradesh | Karnataka | Kerala | New Delhi | Other States | International | Opinion | Business | Sport | Miscellaneous | Advts: Classifieds | Employment | Obituary |             Updates: Breaking News | .\n\n. Front Page .\n\n. News: Front Page | National | Tamil Nadu | Andhra Pradesh | Karnataka | Kerala | New Delhi | Other States | International | Opinion | Business | Sport | Miscellaneous | Advts: Classifieds | Employment | Obituary |             Updates: Breaking News |'
p694
sg605
S'http://www.thehindu.com/2004/08/18/stories/2004081807130106.htm'
p695
sg607
S'GUWAHATI'
p696
sg609
F0.25753856942496495
sg12
(dp697
g14
(lp698
VDhemaji
p699
aVAssam
p700
aVTamil Nadu
p701
aVAndhra Pradesh
p702
aVKarnataka
p703
aVKerala
p704
aVNew Delhi
p705
aVTamil Nadu
p706
aVAndhra Pradesh
p707
aVKarnataka
p708
aVKerala
p709
aVNew Delhi
p710
aVTamil Nadu
p711
aVAndhra Pradesh
p712
aVKarnataka
p713
aVKerala
p714
aVNew Delhi
p715
asg20
(lp716
sg23
(lp717
VFront
p718
aVPage
p719
aVULFA
p720
aVowns
p721
aVresponsibility
p722
aVGUWAHATI
p723
aVAUG.
p724
aV17
p725
aVbanned
p726
aVULFA
p727
aVowned
p728
aVresponsibility
p729
aVIndependence
p730
aVDay
p731
aVbomb
p732
aVblast
p733
aVdistrict
p734
aV13
p735
aVpersons
p736
aVkilled
p737
aVPrinter
p738
aVfriendly
p739
aVpageSend
p740
aVarticle
p741
aVFriends
p742
aVE-MailFront
p743
aVPageNews
p744
aVFront
p745
aVPage
p746
aVNational
p747
aVStates
p748
aVInternational
p749
aVOpinion
p750
aVBusiness
p751
aVSport
p752
aVMiscellaneous
p753
aVAdvts
p754
aVClassifieds
p755
aVEmployment
p756
aVObituary
p757
aVUpdates
p758
aVBreaking
p759
aVNews
p760
aVPrinter
p761
aVfriendly
p762
aVpageSend
p763
aVarticle
p764
aVFriends
p765
aVE-MailFront
p766
aVPageNews
p767
aVFront
p768
aVPage
p769
aVNational
p770
aVStates
p771
aVInternational
p772
aVOpinion
p773
aVBusiness
p774
aVSport
p775
aVMiscellaneous
p776
aVAdvts
p777
aVClassifieds
p778
aVEmployment
p779
aVObituary
p780
aVUpdates
p781
aVBreaking
p782
aVNews
p783
aVFront
p784
aVPage
p785
aVNews
p786
aVFront
p787
aVPage
p788
aVNational
p789
aVStates
p790
aVInternational
p791
aVOpinion
p792
aVBusiness
p793
aVSport
p794
aVMiscellaneous
p795
aVAdvts
p796
aVClassifieds
p797
aVEmployment
p798
aVObituary
p799
aVUpdates
p800
aVBreaking
p801
aVNews
p802
aVULFA
p803
aVowns
p804
aVresponsibility
p805
asg114
(lp806
sg116
(lp807
sg120
(lp808
sg122
(lp809
g718
ag719
ag720
ag721
ag722
aV.
p810
aV.
p811
ag723
aV,
p812
ag724
ag725
aV.
p813
aVThe
p814
ag726
ag727
aVhas
p815
ag728
ag729
aVfor
p816
aVthe
p817
ag730
ag731
ag732
ag733
aVin
p818
ag734
aVin
p819
aVin
p820
aVwhich
p821
ag735
ag736
aVwere
p822
ag737
aV.
p823
aVPTI
p824
ag738
ag739
ag740
aVthis
p825
ag741
aVto
p826
ag742
aVby
p827
ag743
ag744
ag659
ag745
ag746
aV|
p828
ag747
aV|
p829
aV|
p830
aV|
p831
aV|
p832
aV|
p833
aV|
p834
aVOther
p835
ag748
aV|
p836
ag749
aV|
p837
ag750
aV|
p838
ag751
aV|
p839
ag752
aV|
p840
ag753
aV|
p841
ag754
ag659
ag755
aV|
p842
ag756
aV|
p843
ag757
aV|
p844
ag758
ag659
ag759
ag760
aV|
p845
aV.
p846
aV.
p847
ag761
ag762
ag763
aVthis
p848
ag764
aVto
p849
ag765
aVby
p850
ag766
ag767
ag659
ag768
ag769
aV|
p851
ag770
aV|
p852
aV|
p853
aV|
p854
aV|
p855
aV|
p856
aV|
p857
aVOther
p858
ag771
aV|
p859
ag772
aV|
p860
ag773
aV|
p861
ag774
aV|
p862
ag775
aV|
p863
ag776
aV|
p864
ag777
ag659
ag778
aV|
p865
ag779
aV|
p866
ag780
aV|
p867
ag781
ag659
ag782
ag783
aV|
p868
aV.
p869
aV.
p870
ag784
ag785
aV.
p871
aV.
p872
ag786
ag659
ag787
ag788
aV|
p873
ag789
aV|
p874
aV|
p875
aV|
p876
aV|
p877
aV|
p878
aV|
p879
aVOther
p880
ag790
aV|
p881
ag791
aV|
p882
ag792
aV|
p883
ag793
aV|
p884
ag794
aV|
p885
ag795
aV|
p886
ag796
ag659
ag797
aV|
p887
ag798
aV|
p888
ag799
aV|
p889
ag800
ag659
ag801
ag802
aV|
p890
ag803
ag804
ag805
aV.
p891
asg236
(lp892
g718
ag719
ag720
ag721
ag722
ag723
ag724
ag725
ag726
ag727
ag728
ag729
ag730
ag731
ag732
ag733
ag734
ag735
ag736
ag737
ag738
ag739
ag740
ag741
ag742
ag743
ag744
ag745
ag746
ag747
ag748
ag749
ag750
ag751
ag752
ag753
ag754
ag755
ag756
ag757
ag758
ag759
ag760
ag761
ag762
ag763
ag764
ag765
ag766
ag767
ag768
ag769
ag770
ag771
ag772
ag773
ag774
ag775
ag776
ag777
ag778
ag779
ag780
ag781
ag782
ag783
ag784
ag785
ag786
ag787
ag788
ag789
ag790
ag791
ag792
ag793
ag794
ag795
ag796
ag797
ag798
ag799
ag800
ag801
ag802
ag803
ag804
ag805
asssS'ev_001_st_004.html'
p893
(dp894
S'TITLE'
p895
S'13 injured in bomb blast in Guwahati'
p896
sS'CONTENT'
p897
S"GUWAHATI: Thirteen persons were injured, three of them seriously, in a powerful bomb explosion by ULFA in Lower Assam's Bongaigaon district on Monday morning, police said. .\n\n. The Programmable Time Device (PTD) was kept concealed inside a bicycle in Bongaigaon town's Paglathan Bazar. .\n\n. The bomb went off at 9.30 am when the area near rail gate was busy with shoppers creating chaos. People ran in panic and shop keepers downed their shutters. .\n\n. The area has been cordened off, police said, adding the injured had been admitted to hospital where the condition of three was stated to be serious. .\n\n. On Friday, the ULFA triggered a powerful blast at Fancy Bazar in Guwahati, targetting Hindi-speaking businessmen and injuring five persons. .\n\n. A terror attack was averted on Sunday with the recovery of a bomb containing one kilogram of RDX near the main fish market of Assam's Jorhat district"
p898
sS'LINK'
p899
S'http://www.dnaindia.com/india/report-13-injured-in-bomb-blast-in-guwahati-1098184'
p900
sS'LOCATION'
p901
VGUWAHATI
p902
sS'TIME'
p903
F0.43390603085553997
sg12
(dp904
g14
(lp905
VGUWAHATI
p906
aVAssam
p907
aVBongaigaon
p908
aVBongaigaon
p909
aVPaglathan Bazar
p910
aVGuwahati
p911
aVAssam
p912
aVGuwahati
p913
asg20
(lp914
sg23
(lp915
VThirteen
p916
aVpersons
p917
aVinjured
p918
aVthree
p919
aVseriously
p920
aVpowerful
p921
aVbomb
p922
aVexplosion
p923
aVLower
p924
aV's
p925
aVdistrict
p926
aVmorning
p927
aVpolice
p928
aVsaid
p929
aVProgrammable
p930
aVTime
p931
aVDevice
p932
aVPTD
p933
aVkept
p934
aVconcealed
p935
aVinside
p936
aVbicycle
p937
aVtown
p938
aV's
p939
aVbomb
p940
aVwent
p941
aV9.30
p942
aVarea
p943
aVnear
p944
aVrail
p945
aVgate
p946
aVbusy
p947
aVshoppers
p948
aVcreating
p949
aVchaos
p950
aVPeople
p951
aVran
p952
aVpanic
p953
aVshop
p954
aVkeepers
p955
aVdowned
p956
aVshutters
p957
aVarea
p958
aVcordened
p959
aVpolice
p960
aVsaid
p961
aVadding
p962
aVinjured
p963
aVadmitted
p964
aVhospital
p965
aVcondition
p966
aVthree
p967
aVstated
p968
aVserious
p969
aVULFA
p970
aVtriggered
p971
aVpowerful
p972
aVblast
p973
aVFancy
p974
aVBazar
p975
aVtargetting
p976
aVHindi-speaking
p977
aVbusinessmen
p978
aVinjuring
p979
aVfive
p980
aVpersons
p981
aVterror
p982
aVattack
p983
aVaverted
p984
aVrecovery
p985
aVbomb
p986
aVcontaining
p987
aVone
p988
aVkilogram
p989
aVRDX
p990
aVnear
p991
aVmain
p992
aVfish
p993
aVmarket
p994
aV's
p995
aVJorhat
p996
aVdistrict13
p997
aVinjured
p998
aVbomb
p999
aVblast
p1000
asg114
(lp1001
sg116
(lp1002
VMonday
p1003
aVFriday
p1004
aVSunday
p1005
asg120
(lp1006
VULFA
p1007
asg122
(lp1008
g659
ag916
ag917
aVwere
p1009
ag918
aV,
p1010
ag919
aVof
p1011
aVthem
p1012
ag920
aV,
p1013
aVin
p1014
aVa
p1015
ag921
ag922
ag923
aVby
p1016
aVin
p1017
ag924
ag925
ag926
aVon
p1018
ag927
aV,
p1019
ag928
ag929
aV.
p1020
aV.
p1021
aV.
p1022
aVThe
p1023
ag930
ag931
ag932
aV-LRB-
p1024
ag933
aV-RRB-
p1025
aVwas
p1026
ag934
ag935
ag936
aVa
p1027
ag937
aVin
p1028
ag938
ag939
aV.
p1029
aV.
p1030
aV.
p1031
aVThe
p1032
ag940
ag941
aVoff
p1033
aVat
p1034
ag942
aVam
p1035
aVwhen
p1036
aVthe
p1037
ag943
ag944
ag945
ag946
aVwas
p1038
ag947
aVwith
p1039
ag948
ag949
ag950
aV.
p1040
ag951
ag952
aVin
p1041
ag953
aVand
p1042
ag954
ag955
ag956
aVtheir
p1043
ag957
aV.
p1044
aV.
p1045
aV.
p1046
aVThe
p1047
ag958
aVhas
p1048
aVbeen
p1049
ag959
aVoff
p1050
aV,
p1051
ag960
ag961
aV,
p1052
ag962
aVthe
p1053
ag963
aVhad
p1054
aVbeen
p1055
ag964
aVto
p1056
ag965
aVwhere
p1057
aVthe
p1058
ag966
aVof
p1059
ag967
aVwas
p1060
ag968
aVto
p1061
aVbe
p1062
ag969
aV.
p1063
aV.
p1064
aV.
p1065
aVOn
p1066
aV,
p1067
aVthe
p1068
ag970
ag971
aVa
p1069
ag972
ag973
aVat
p1070
ag974
ag975
aVin
p1071
aV,
p1072
ag976
ag977
ag978
aVand
p1073
ag979
ag980
ag981
aV.
p1074
aV.
p1075
aV.
p1076
aVA
p1077
ag982
ag983
aVwas
p1078
ag984
aVon
p1079
aVwith
p1080
aVthe
p1081
ag985
aVof
p1082
aVa
p1083
ag986
ag987
ag988
ag989
aVof
p1084
ag990
ag991
aVthe
p1085
ag992
ag993
ag994
aVof
p1086
ag995
ag996
ag997
ag998
aVin
p1087
ag999
ag1000
aVin
p1088
aV.
p1089
asg236
(lp1090
g916
ag917
ag918
ag919
ag920
ag921
ag922
ag923
ag924
ag925
ag926
ag927
ag928
ag929
ag930
ag931
ag932
ag933
ag934
ag935
ag936
ag937
ag938
ag939
ag940
ag941
ag942
ag943
ag944
ag945
ag946
ag947
ag948
ag949
ag950
ag951
ag952
ag953
ag954
ag955
ag956
ag957
ag958
ag959
ag960
ag961
ag962
ag963
ag964
ag965
ag966
ag967
ag968
ag969
ag970
ag971
ag972
ag973
ag974
ag975
ag976
ag977
ag978
ag979
ag980
ag981
ag982
ag983
ag984
ag985
ag986
ag987
ag988
ag989
ag990
ag991
ag992
ag993
ag994
ag995
ag996
ag997
ag998
ag999
ag1000
asss.