(dp0
S'ev_001_st_004.html'
p1
(dp2
S'TITLE'
p3
S'13 injured in bomb blast in Guwahati'
p4
sS'CONTENT'
p5
S"GUWAHATI: Thirteen persons were injured, three of them seriously, in a powerful bomb explosion by ULFA in Lower Assam's Bongaigaon district on Monday morning, police said. .\n\n. The Programmable Time Device (PTD) was kept concealed inside a bicycle in Bongaigaon town's Paglathan Bazar. .\n\n. The bomb went off at 9.30 am when the area near rail gate was busy with shoppers creating chaos. People ran in panic and shop keepers downed their shutters. .\n\n. The area has been cordened off, police said, adding the injured had been admitted to hospital where the condition of three was stated to be serious. .\n\n. On Friday, the ULFA triggered a powerful blast at Fancy Bazar in Guwahati, targetting Hindi-speaking businessmen and injuring five persons. .\n\n. A terror attack was averted on Sunday with the recovery of a bomb containing one kilogram of RDX near the main fish market of Assam's Jorhat district"
p6
sS'LINK'
p7
S'http://www.dnaindia.com/india/report-13-injured-in-bomb-blast-in-guwahati-1098184'
p8
sS'LOCATION'
p9
VGUWAHATI
p10
sS'TIME'
p11
F0.43390603085553997
sS'NER'
p12
(dp13
S'LOC'
p14
(lp15
VGUWAHATI
p16
aVAssam
p17
aVBongaigaon
p18
aVBongaigaon
p19
aVPaglathan Bazar
p20
aVGuwahati
p21
aVAssam
p22
aVGuwahati
p23
asS'PER'
p24
(lp25
sS'DATE'
p26
(lp27
VMonday
p28
aVFriday
p29
aVSunday
p30
asS'TIME'
p31
(lp32
sS'KEYWORDS'
p33
(lp34
VThirteen
p35
aVpersons
p36
aVinjured
p37
aVthree
p38
aVseriously
p39
aVpowerful
p40
aVbomb
p41
aVexplosion
p42
aVLower
p43
aV's
p44
aVdistrict
p45
aVmorning
p46
aVpolice
p47
aVsaid
p48
aVProgrammable
p49
aVTime
p50
aVDevice
p51
aVPTD
p52
aVkept
p53
aVconcealed
p54
aVinside
p55
aVbicycle
p56
aVtown
p57
aV's
p58
aVbomb
p59
aVwent
p60
aV9.30
p61
aVarea
p62
aVnear
p63
aVrail
p64
aVgate
p65
aVbusy
p66
aVshoppers
p67
aVcreating
p68
aVchaos
p69
aVPeople
p70
aVran
p71
aVpanic
p72
aVshop
p73
aVkeepers
p74
aVdowned
p75
aVshutters
p76
aVarea
p77
aVcordened
p78
aVpolice
p79
aVsaid
p80
aVadding
p81
aVinjured
p82
aVadmitted
p83
aVhospital
p84
aVcondition
p85
aVthree
p86
aVstated
p87
aVserious
p88
aVULFA
p89
aVtriggered
p90
aVpowerful
p91
aVblast
p92
aVFancy
p93
aVBazar
p94
aVtargetting
p95
aVHindi-speaking
p96
aVbusinessmen
p97
aVinjuring
p98
aVfive
p99
aVpersons
p100
aVterror
p101
aVattack
p102
aVaverted
p103
aVrecovery
p104
aVbomb
p105
aVcontaining
p106
aVone
p107
aVkilogram
p108
aVRDX
p109
aVnear
p110
aVmain
p111
aVfish
p112
aVmarket
p113
aV's
p114
aVJorhat
p115
aVdistrict13
p116
aVinjured
p117
aVbomb
p118
aVblast
p119
asS'ORG'
p120
(lp121
VULFA
p122
asS'OT'
p123
(lp124
V
p125
ag35
ag36
aVwere
p126
ag37
aV,
p127
ag38
aVof
p128
aVthem
p129
ag39
aV,
p130
aVin
p131
aVa
p132
ag40
ag41
ag42
aVby
p133
aVin
p134
ag43
ag44
ag45
aVon
p135
ag46
aV,
p136
ag47
ag48
aV.
p137
aV.
p138
aV.
p139
aVThe
p140
ag49
ag50
ag51
aV-LRB-
p141
ag52
aV-RRB-
p142
aVwas
p143
ag53
ag54
ag55
aVa
p144
ag56
aVin
p145
ag57
ag58
aV.
p146
aV.
p147
aV.
p148
aVThe
p149
ag59
ag60
aVoff
p150
aVat
p151
ag61
aVam
p152
aVwhen
p153
aVthe
p154
ag62
ag63
ag64
ag65
aVwas
p155
ag66
aVwith
p156
ag67
ag68
ag69
aV.
p157
ag70
ag71
aVin
p158
ag72
aVand
p159
ag73
ag74
ag75
aVtheir
p160
ag76
aV.
p161
aV.
p162
aV.
p163
aVThe
p164
ag77
aVhas
p165
aVbeen
p166
ag78
aVoff
p167
aV,
p168
ag79
ag80
aV,
p169
ag81
aVthe
p170
ag82
aVhad
p171
aVbeen
p172
ag83
aVto
p173
ag84
aVwhere
p174
aVthe
p175
ag85
aVof
p176
ag86
aVwas
p177
ag87
aVto
p178
aVbe
p179
ag88
aV.
p180
aV.
p181
aV.
p182
aVOn
p183
aV,
p184
aVthe
p185
ag89
ag90
aVa
p186
ag91
ag92
aVat
p187
ag93
ag94
aVin
p188
aV,
p189
ag95
ag96
ag97
aVand
p190
ag98
ag99
ag100
aV.
p191
aV.
p192
aV.
p193
aVA
p194
ag101
ag102
aVwas
p195
ag103
aVon
p196
aVwith
p197
aVthe
p198
ag104
aVof
p199
aVa
p200
ag105
ag106
ag107
ag108
aVof
p201
ag109
ag110
aVthe
p202
ag111
ag112
ag113
aVof
p203
ag114
ag115
ag116
ag117
aVin
p204
ag118
ag119
aVin
p205
aV.
p206
asS'ONS'
p207
(lp208
g35
ag36
ag37
ag38
ag39
asssS'ev_001_st_001.html'
p209
(dp210
S'TITLE'
p211
S'15 hurt in blast'
p212
sS'CONTENT'
p213
S"Special Correspondent .\n\n. Guwahati: Fifteen persons, including four school children, were injured in a bomb blast suspected to have been triggered by the United Liberation Front of Asom (ULFA) in lower Assam's Bongaigaon town on Monday morning. .\n\n. Police said the blast occurred near the office of the Superintendent of Police around 9:25 a.m. The bomb was planted in a bicycle"
p214
sS'LINK'
p215
S'http://www.thehindu.com/todays-paper/tp-national/15-hurt-in-blast/article1845550.ece'
p216
sS'LOCATION'
p217
VGuwahati:
p218
sS'TIME'
p219
F0.4340813464235624
sg12
(dp220
g14
(lp221
VGuwahati
p222
aVAssam
p223
aVBongaigaon
p224
asg24
(lp225
sg26
(lp226
VMonday
p227
asg31
(lp228
V9
p229
asg33
(lp230
VSpecial
p231
aVCorrespondent
p232
aVFifteen
p233
aVpersons
p234
aVincluding
p235
aVfour
p236
aVschool
p237
aVchildren
p238
aVinjured
p239
aVbomb
p240
aVblast
p241
aVsuspected
p242
aVtriggered
p243
aVAsom
p244
aVlower
p245
aV's
p246
aVtown
p247
aVmorning
p248
aVPolice
p249
aVsaid
p250
aVblast
p251
aVoccurred
p252
aVnear
p253
aVoffice
p254
aVSuperintendent
p255
aVPolice
p256
aVaround
p257
aVbomb
p258
aVplanted
p259
aVbicycle15
p260
aVhurt
p261
aVblast
p262
asg120
(lp263
VUnited Liberation Front
p264
aVULFA
p265
asg123
(lp266
g231
ag232
aV.
p267
aV.
p268
ag125
ag233
ag234
aV,
p269
ag235
ag236
ag237
ag238
aV,
p270
aVwere
p271
ag239
aVin
p272
aVa
p273
ag240
ag241
ag242
aVto
p274
aVhave
p275
aVbeen
p276
ag243
aVby
p277
aVthe
p278
aVof
p279
ag244
aV-LRB-
p280
aV-RRB-
p281
aVin
p282
ag245
ag246
ag247
aVon
p283
ag248
aV.
p284
aV.
p285
aV.
p286
ag249
ag250
aVthe
p287
ag251
ag252
ag253
aVthe
p288
ag254
aVof
p289
aVthe
p290
ag255
aVof
p291
ag256
ag257
aV.
p292
aVThe
p293
ag258
aVwas
p294
ag259
aVin
p295
aVa
p296
ag260
ag261
aVin
p297
ag262
aV.
p298
asg207
(lp299
g231
ag232
ag233
ag234
ag235
asssS'ev_001_st_008.html'
p300
(dp301
S'TITLE'
p302
S'13 injured in ULFA bomb blast in Assam'
p303
sS'CONTENT'
p304
S"Thirteen persons were injured, three of them seriously, in a powerful bomb explosion by ULFA in Lower Assam's Bongaigaon district this morning, police said. .\n\n. The Programmable Time Device (PTD) was kept concealed inside a bicycle in Bongaigaon town's Paglathan Bazar. .\n\n. The bomb went off at 9.30 am. When the area near rail gate was busy with shoppers creating chaos. People ran in panic and shop keepers downed their shutters. .\n\n. The area has been cordened off, police said, adding the injured had been admitted to hospital where the condition of three was stated to be serious. .\n\n. On Friday, the ULFA triggered a powerful blast at Fancy Bazar in Guwahati, targetting Hindi-speaking businessmen and injuring five persons. .\n\n. A terror attack was averted on Sunday with the recovery of a bomb containing one kilogram of RDX near the main fish market of Assam's Jorhat district. .\n\n. "
p305
sS'LINK'
p306
S'http://www.hindustantimes.com/india/13-injured-in-ulfa-bomb-blast-in-assam/story-K8n5g30JEsekLXNf7FHKmK.html'
p307
sS'LOCATION'
p308
V Guwahati
p309
sS'TIME'
p310
F0.43390603085553997
sg12
(dp311
g14
(lp312
VAssam
p313
aVBongaigaon
p314
aVBongaigaon
p315
aVPaglathan Bazar
p316
aVGuwahati
p317
aVAssam
p318
aVJorhat
p319
aVAssam
p320
asg24
(lp321
sg26
(lp322
VFriday
p323
aVSunday
p324
asg31
(lp325
sg33
(lp326
VThirteen
p327
aVpersons
p328
aVinjured
p329
aVthree
p330
aVseriously
p331
aVpowerful
p332
aVbomb
p333
aVexplosion
p334
aVLower
p335
aV's
p336
aVdistrict
p337
aVmorning
p338
aVpolice
p339
aVsaid
p340
aVProgrammable
p341
aVTime
p342
aVDevice
p343
aVPTD
p344
aVkept
p345
aVconcealed
p346
aVinside
p347
aVbicycle
p348
aVtown
p349
aV's
p350
aVbomb
p351
aVwent
p352
aV9.30
p353
aVarea
p354
aVnear
p355
aVrail
p356
aVgate
p357
aVbusy
p358
aVshoppers
p359
aVcreating
p360
aVchaos
p361
aVPeople
p362
aVran
p363
aVpanic
p364
aVshop
p365
aVkeepers
p366
aVdowned
p367
aVshutters
p368
aVarea
p369
aVcordened
p370
aVpolice
p371
aVsaid
p372
aVadding
p373
aVinjured
p374
aVadmitted
p375
aVhospital
p376
aVcondition
p377
aVthree
p378
aVstated
p379
aVserious
p380
aVULFA
p381
aVtriggered
p382
aVpowerful
p383
aVblast
p384
aVFancy
p385
aVBazar
p386
aVtargetting
p387
aVHindi-speaking
p388
aVbusinessmen
p389
aVinjuring
p390
aVfive
p391
aVpersons
p392
aVterror
p393
aVattack
p394
aVaverted
p395
aVrecovery
p396
aVbomb
p397
aVcontaining
p398
aVone
p399
aVkilogram
p400
aVRDX
p401
aVnear
p402
aVmain
p403
aVfish
p404
aVmarket
p405
aV's
p406
aVdistrict
p407
aV.13
p408
aVinjured
p409
aVULFA
p410
aVbomb
p411
aVblast
p412
asg120
(lp413
VULFA
p414
asg123
(lp415
g327
ag328
aVwere
p416
ag329
aV,
p417
ag330
aVof
p418
aVthem
p419
ag331
aV,
p420
aVin
p421
aVa
p422
ag332
ag333
ag334
aVby
p423
aVin
p424
ag335
ag336
ag337
aVthis
p425
ag338
aV,
p426
ag339
ag340
aV.
p427
aV.
p428
aV.
p429
aVThe
p430
ag341
ag342
ag343
aV-LRB-
p431
ag344
aV-RRB-
p432
aVwas
p433
ag345
ag346
ag347
aVa
p434
ag348
aVin
p435
ag349
ag350
aV.
p436
aV.
p437
aV.
p438
aVThe
p439
ag351
ag352
aVoff
p440
aVat
p441
ag353
aVam
p442
aV.
p443
aVWhen
p444
aVthe
p445
ag354
ag355
ag356
ag357
aVwas
p446
ag358
aVwith
p447
ag359
ag360
ag361
aV.
p448
ag362
ag363
aVin
p449
ag364
aVand
p450
ag365
ag366
ag367
aVtheir
p451
ag368
aV.
p452
aV.
p453
aV.
p454
aVThe
p455
ag369
aVhas
p456
aVbeen
p457
ag370
aVoff
p458
aV,
p459
ag371
ag372
aV,
p460
ag373
aVthe
p461
ag374
aVhad
p462
aVbeen
p463
ag375
aVto
p464
ag376
aVwhere
p465
aVthe
p466
ag377
aVof
p467
ag378
aVwas
p468
ag379
aVto
p469
aVbe
p470
ag380
aV.
p471
aV.
p472
aV.
p473
aVOn
p474
aV,
p475
aVthe
p476
ag381
ag382
aVa
p477
ag383
ag384
aVat
p478
ag385
ag386
aVin
p479
aV,
p480
ag387
ag388
ag389
aVand
p481
ag390
ag391
ag392
aV.
p482
aV.
p483
aV.
p484
aVA
p485
ag393
ag394
aVwas
p486
ag395
aVon
p487
aVwith
p488
aVthe
p489
ag396
aVof
p490
aVa
p491
ag397
ag398
ag399
ag400
aVof
p492
ag401
ag402
aVthe
p493
ag403
ag404
ag405
aVof
p494
ag406
ag407
aV.
p495
aV.
p496
ag408
ag409
aVin
p497
ag410
ag411
ag412
aVin
p498
aV.
p499
asg207
(lp500
g327
ag328
ag329
ag330
ag331
asss.