(dp0
S'ev_008_st_006.html'
p1
(dp2
S'TITLE'
p3
S'Blast in Imphal, two troopers injured'
p4
sS'CONTENT'
p5
S'The two Assam Rifles troopers were on routine patrolling on Wednesday when the blast hit them in the Keisampat area, a few kilometres from the Manipur Police headquarters. Their condition is stated to be stable, an Assam Rifles official said. .\n\n. A security alert has been sounded and Keisampat has been cordoned off, Imphal district police chief Konsam Jayanta Singh told IANS. He said preliminary reports suggested that the blast could have been triggered by an Improvised Explosive Device. "We have found the wreckage of a scooter from the blast site," he said. .\n\n. No arrests had been made so far, he added. .\n\n. Though no rebel group has claimed responsibility for the blasts, Manipur Police and intelligence officials said the blasts were carried out by rebels. .\n\n. On Monday, a youth was killed in a village of Manipur\'s Thoubal district after a bomb, suspected to have been planted by militants, went off at his house. .\n\n. There are more than 20 rebel outfits in Manipur with demands ranging from secession to greater autonomy. .\n\n. '
p6
sS'LINK'
p7
S'http://www.assamtribune.com/scripts/detailsnew.asp?id=sep0512/at043'
p8
sS'LOCATION'
p9
V Wednesday, September 05 2012
p10
sS'TIME'
p11
F0.7729663394109397
sS'NER'
p12
(dp13
S'LOC'
p14
(lp15
VImphal
p16
aVManipur
p17
aVThoubal
p18
aVImphal
p19
asS'PER'
p20
(lp21
VKonsam Jayanta Singh
p22
asS'KEYWORDS'
p23
(lp24
Vtwo
p25
aVAssam
p26
aVRifles
p27
aVtroopers
p28
aVroutine
p29
aVpatrolling
p30
aVblast
p31
aVhit
p32
aVKeisampat
p33
aVarea
p34
aVkilometres
p35
aVManipur
p36
aVPolice
p37
aVheadquarters
p38
aVcondition
p39
aVstated
p40
aVstable
p41
aVAssam
p42
aVRifles
p43
aVofficial
p44
aVsaid
p45
aVsecurity
p46
aValert
p47
aVsounded
p48
aVKeisampat
p49
aVcordoned
p50
aVdistrict
p51
aVpolice
p52
aVchief
p53
aVtold
p54
aVIANS
p55
aVsaid
p56
aVpreliminary
p57
aVreports
p58
aVsuggested
p59
aVblast
p60
aVcould
p61
aVtriggered
p62
aVImprovised
p63
aVExplosive
p64
aVDevice
p65
aVfound
p66
aVwreckage
p67
aVscooter
p68
aVblast
p69
aVsite
p70
aVsaid
p71
aVarrests
p72
aVmade
p73
aVfar
p74
aVadded
p75
aVThough
p76
aVrebel
p77
aVgroup
p78
aVclaimed
p79
aVresponsibility
p80
aVblasts
p81
aVManipur
p82
aVPolice
p83
aVintelligence
p84
aVofficials
p85
aVsaid
p86
aVblasts
p87
aVcarried
p88
aVrebels
p89
aVyouth
p90
aVkilled
p91
aVvillage
p92
aV's
p93
aVdistrict
p94
aVbomb
p95
aVsuspected
p96
aVplanted
p97
aVmilitants
p98
aVwent
p99
aVhouse
p100
aV20
p101
aVrebel
p102
aVoutfits
p103
aVManipur
p104
aVdemands
p105
aVranging
p106
aVsecession
p107
aVgreater
p108
aVautonomy
p109
aVBlast
p110
aVtwo
p111
aVtroopers
p112
aVinjured
p113
asS'TIME'
p114
(lp115
sS'DATE'
p116
(lp117
VWednesday
p118
aVMonday
p119
asS'ORG'
p120
(lp121
sS'OT'
p122
(lp123
VThe
p124
ag25
ag26
ag27
ag28
aVwere
p125
aVon
p126
ag29
ag30
aVon
p127
aVwhen
p128
aVthe
p129
ag31
ag32
aVthem
p130
aVin
p131
aVthe
p132
ag33
ag34
aV,
p133
aVa
p134
aVfew
p135
ag35
aVfrom
p136
aVthe
p137
ag36
ag37
ag38
aV.
p138
aVTheir
p139
ag39
aVis
p140
ag40
aVto
p141
aVbe
p142
ag41
aV,
p143
aVan
p144
ag42
ag43
ag44
ag45
aV.
p145
aV.
p146
aV.
p147
aVA
p148
ag46
ag47
aVhas
p149
aVbeen
p150
ag48
aVand
p151
ag49
aVhas
p152
aVbeen
p153
ag50
aVoff
p154
aV,
p155
ag51
ag52
ag53
ag54
ag55
aV.
p156
aVHe
p157
ag56
ag57
ag58
ag59
aVthat
p158
aVthe
p159
ag60
ag61
aVhave
p160
aVbeen
p161
ag62
aVby
p162
aVan
p163
ag63
ag64
ag65
aV.
p164
aV``
p165
aVWe
p166
aVhave
p167
ag66
aVthe
p168
ag67
aVof
p169
aVa
p170
ag68
aVfrom
p171
aVthe
p172
ag69
ag70
aV,
p173
aV''
p174
aVhe
p175
ag71
aV.
p176
aV.
p177
aV.
p178
aVNo
p179
ag72
aVhad
p180
aVbeen
p181
ag73
aVso
p182
ag74
aV,
p183
aVhe
p184
ag75
aV.
p185
aV.
p186
aV.
p187
ag76
aVno
p188
ag77
ag78
aVhas
p189
ag79
ag80
aVfor
p190
aVthe
p191
ag81
aV,
p192
ag82
ag83
aVand
p193
ag84
ag85
ag86
aVthe
p194
ag87
aVwere
p195
ag88
aVout
p196
aVby
p197
ag89
aV.
p198
aV.
p199
aV.
p200
aVOn
p201
aV,
p202
aVa
p203
ag90
aVwas
p204
ag91
aVin
p205
aVa
p206
ag92
aVof
p207
ag93
ag94
aVafter
p208
aVa
p209
ag95
aV,
p210
ag96
aVto
p211
aVhave
p212
aVbeen
p213
ag97
aVby
p214
ag98
aV,
p215
ag99
aVoff
p216
aVat
p217
aVhis
p218
ag100
aV.
p219
aV.
p220
aV.
p221
aVThere
p222
aVare
p223
aVmore
p224
aVthan
p225
ag101
ag102
ag103
aVin
p226
ag104
aVwith
p227
ag105
ag106
aVfrom
p228
ag107
aVto
p229
ag108
ag109
aV.
p230
aV.
p231
aV.
p232
ag110
aVin
p233
aV,
p234
ag111
ag112
ag113
aV.
p235
asS'ONS'
p236
(lp237
g25
ag26
ag27
ag28
ag29
ag30
ag31
ag32
ag33
ag34
ag35
ag36
ag37
ag38
ag39
ag40
ag41
ag42
ag43
ag44
ag45
ag46
ag47
ag48
ag49
ag50
ag51
ag52
ag53
ag54
ag55
ag56
ag57
ag58
ag59
ag60
ag61
ag62
ag63
ag64
ag65
ag66
ag67
ag68
ag69
ag70
ag71
ag72
ag73
ag74
ag75
ag76
ag77
ag78
ag79
ag80
ag81
ag82
ag83
ag84
ag85
ag86
ag87
ag88
ag89
ag90
ag91
ag92
ag93
ag94
ag95
ag96
ag97
ag98
ag99
ag100
ag101
ag102
ag103
ag104
ag105
ag106
ag107
ag108
ag109
ag110
ag111
ag112
ag113
asssS'ev_014_st_008.html'
p238
(dp239
S'TITLE'
p240
S'ULFA tenders apology for Dhemaji blast'
p241
sS'CONTENT'
p242
S'More than five years after it had triggered a bomb blast at the Independence Day parade ground in upper Assams Dhemaji town in which 13 people, including 10 children and three women, were killed on August 15, 2004, the United Liberation Front of Asom (ULFA) on Sunday tendered an apology to the people of Assam for denying its hand in the blast immediately after the blast. .\n\n. In a statement e-mailed to the local media, self-styled Commander-in-Chief of the ULFA, Paresh Barua, described the Dhemaji blast as the most tainted chapter of ULFAs revolutionary history and the most brutal and heinous murder of children and women. .\n\n. Barua claimed that ULFA had denied its hand in the blast as those ULFA cadres who had triggered it, misinformed higher-ups in the militant outfit that the blast was the handiwork of the occupational forces. .\n\n. We did not realise that our statement issued at that time was incorrect. However, later when the real truth came to light, we realised that our statement was incorrect. So we seek the apology of the people of Assam, Barua said. .\n\n. The ULFA military chief alleged that those cadres who were involved in the Dhemaji blast had already been expelled from the outfit'
p243
sS'LINK'
p244
S'http://www.thehindu.com/news/national/ulfa-tenders-apology-for-dhemaji-blast/article64697.ece'
p245
sS'LOCATION'
p246
VGuwahati,
p247
sS'TIME'
p248
F0.5981767180925667
sg12
(dp249
g14
(lp250
VAssam
p251
aVAssam
p252
aVBarua
p253
aVDhemaji
p254
asg20
(lp255
VAssams Dhemaji
p256
aVParesh Barua
p257
aVDhemaji
p258
asg23
(lp259
Vfive
p260
aVyears
p261
aVtriggered
p262
aVbomb
p263
aVblast
p264
aVIndependence
p265
aVDay
p266
aVparade
p267
aVground
p268
aVupper
p269
aVtown
p270
aV13
p271
aVpeople
p272
aVincluding
p273
aV10
p274
aVchildren
p275
aVthree
p276
aVwomen
p277
aVkilled
p278
aVAsom
p279
aVtendered
p280
aVapology
p281
aVpeople
p282
aVdenying
p283
aVhand
p284
aVblast
p285
aVimmediately
p286
aVblast
p287
aVstatement
p288
aVe-mailed
p289
aVlocal
p290
aVmedia
p291
aVself-styled
p292
aVCommander-in-Chief
p293
aVULFA
p294
aVdescribed
p295
aVDhemaji
p296
aVblast
p297
aVtainted
p298
aVchapter
p299
aVULFAs
p300
aVrevolutionary
p301
aVhistory
p302
aVbrutal
p303
aVheinous
p304
aVmurder
p305
aVchildren
p306
aVwomen
p307
aVBarua
p308
aVclaimed
p309
aVULFA
p310
aVdenied
p311
aVhand
p312
aVblast
p313
aVULFA
p314
aVcadres
p315
aVtriggered
p316
aVmisinformed
p317
aVhigher-ups
p318
aVmilitant
p319
aVoutfit
p320
aVblast
p321
aVhandiwork
p322
aVoccupational
p323
aVforces
p324
aVrealise
p325
aVstatement
p326
aVissued
p327
aVtime
p328
aVincorrect
p329
aVHowever
p330
aVlater
p331
aVreal
p332
aVtruth
p333
aVcame
p334
aVlight
p335
aVrealised
p336
aVstatement
p337
aVincorrect
p338
aVseek
p339
aVapology
p340
aVpeople
p341
aVsaid
p342
aVULFA
p343
aVmilitary
p344
aVchief
p345
aValleged
p346
aVcadres
p347
aVinvolved
p348
aVblast
p349
aValready
p350
aVexpelled
p351
aVoutfitULFA
p352
aVtenders
p353
aVapology
p354
aVblast
p355
asg114
(lp356
sg116
(lp357
VAugust 15
p358
aV2004
p359
aVSunday
p360
asg120
(lp361
VUnited Liberation Front
p362
aVULFA
p363
asg122
(lp364
VMore
p365
aVthan
p366
ag260
ag261
aVafter
p367
aVit
p368
aVhad
p369
ag262
aVa
p370
ag263
ag264
aVat
p371
aVthe
p372
ag265
ag266
ag267
ag268
aVin
p373
ag269
ag270
aVin
p374
aVwhich
p375
ag271
ag272
aV,
p376
ag273
ag274
ag275
aVand
p377
ag276
ag277
aV,
p378
aVwere
p379
ag278
aVon
p380
aV,
p381
aV,
p382
aVthe
p383
aVof
p384
ag279
aV-LRB-
p385
aV-RRB-
p386
aVon
p387
ag280
aVan
p388
ag281
aVto
p389
aVthe
p390
ag282
aVof
p391
aVfor
p392
ag283
aVits
p393
ag284
aVin
p394
aVthe
p395
ag285
ag286
aVafter
p396
aVthe
p397
ag287
aV.
p398
aV.
p399
aV.
p400
aVIn
p401
aVa
p402
ag288
ag289
aVto
p403
aVthe
p404
ag290
ag291
aV,
p405
ag292
ag293
aVof
p406
aVthe
p407
ag294
aV,
p408
aV,
p409
ag295
aVthe
p410
ag296
ag297
aVas
p411
aVthe
p412
aVmost
p413
ag298
ag299
aVof
p414
ag300
ag301
ag302
aVand
p415
aVthe
p416
aVmost
p417
ag303
aVand
p418
ag304
ag305
aVof
p419
ag306
aVand
p420
ag307
aV.
p421
aV.
p422
aV.
p423
ag308
ag309
aVthat
p424
ag310
aVhad
p425
ag311
aVits
p426
ag312
aVin
p427
aVthe
p428
ag313
aVas
p429
aVthose
p430
ag314
ag315
aVwho
p431
aVhad
p432
ag316
aVit
p433
aV,
p434
ag317
ag318
aVin
p435
aVthe
p436
ag319
ag320
aVthat
p437
aVthe
p438
ag321
aVwas
p439
aVthe
p440
ag322
aVof
p441
aVthe
p442
ag323
ag324
aV.
p443
aV.
p444
aV.
p445
aVWe
p446
aVdid
p447
aVnot
p448
ag325
aVthat
p449
aVour
p450
ag326
ag327
aVat
p451
aVthat
p452
ag328
aVwas
p453
ag329
aV.
p454
ag330
aV,
p455
ag331
aVwhen
p456
aVthe
p457
ag332
ag333
ag334
aVto
p458
ag335
aV,
p459
aVwe
p460
ag336
aVthat
p461
aVour
p462
ag337
aVwas
p463
ag338
aV.
p464
aVSo
p465
aVwe
p466
ag339
aVthe
p467
ag340
aVof
p468
aVthe
p469
ag341
aVof
p470
aV,
p471
ag342
aV.
p472
aV.
p473
aV.
p474
aVThe
p475
ag343
ag344
ag345
ag346
aVthat
p476
aVthose
p477
ag347
aVwho
p478
aVwere
p479
ag348
aVin
p480
aVthe
p481
ag349
aVhad
p482
ag350
aVbeen
p483
ag351
aVfrom
p484
aVthe
p485
ag352
ag353
ag354
aVfor
p486
ag355
aV.
p487
asg236
(lp488
g260
ag261
ag262
ag263
ag264
ag265
ag266
ag267
ag268
ag269
ag270
ag271
ag272
ag273
ag274
ag275
ag276
ag277
ag278
ag279
ag280
ag281
ag282
ag283
ag284
ag285
ag286
ag287
ag288
ag289
ag290
ag291
ag292
ag293
ag294
ag295
ag296
ag297
ag298
ag299
ag300
ag301
ag302
ag303
ag304
ag305
ag306
ag307
ag308
ag309
ag310
ag311
ag312
ag313
ag314
ag315
ag316
ag317
ag318
ag319
ag320
ag321
ag322
ag323
ag324
ag325
ag326
ag327
ag328
ag329
ag330
ag331
ag332
ag333
ag334
ag335
ag336
ag337
ag338
ag339
ag340
ag341
ag342
ag343
ag344
ag345
ag346
ag347
ag348
ag349
ag350
ag351
ag352
ag353
ag354
ag355
asssS'ev_014_st_005.html'
p489
(dp490
S'TITLE'
p491
S"ULFA asks for forgiveness from bomb blast victims' families"
p492
sS'CONTENT'
p493
S"ULFA chairman Arabinda Rajkhowa today publicly sought forgiveness for the killing of ten children and three women in a bomb blast in Assam's Dhemaji district on August 15, 2004. .\n\n. Rajkhowa, who is on parole, at a public meeting in Dhemaji town, where 'foreign secretary' Sasa Choudhury, 'political advisor' Bhimkanta Buragohain and 'cultural secretary' Pranati Deka, were present asked for forgiveness from the families of the victims and the people. .\n\n. They also paid obeisance at the memorial to the slain children erected at the site of the bomb blast on Independence Day. .\n\n. Rajkhowa along with the others, leading a 30-member ULFA delegation, later visited the homes of the 13 families. .\n\n. They also visited the families of victims of the 'secret killing' in Dhemaji district. .\n\n. During the last AGP rule, families of the ULFA leaders and cadres were killed by unidentified gunmen which were termed as 'secret killings' by the media. .\n\n. The CID had submitted to the court of Dhemaji chief judicial magistrate on March 25 chargesheet against then ULFA .\n\n. area commander Rasid Bharali and pro-talk ULFA leaders Mrinal Hazarika and Jiten Dutta implicating them in the killing"
p494
sS'LINK'
p495
S'http://www.dnaindia.com/india/report-ulfa-asks-for-forgiveness-from-bomb-blast-victims-families-1547316'
p496
sS'LOCATION'
p497
VDhemaji (Assam)
p498
sS'TIME'
p499
F0.6907433380084151
sg12
(dp500
g14
(lp501
VAssam
p502
aVDhemaji
p503
aVDhemaji
p504
aVDhemaji
p505
asg20
(lp506
VArabinda Rajkhowa
p507
aVBhimkanta Buragohain
p508
aVPranati Deka
p509
aVRajkhowa
p510
aVDhemaji
p511
aVRasid Bharali
p512
aVMrinal Hazarika
p513
aVJiten Dutta
p514
asg23
(lp515
VULFA
p516
aVchairman
p517
aVtoday
p518
aVpublicly
p519
aVsought
p520
aVforgiveness
p521
aVkilling
p522
aVten
p523
aVchildren
p524
aVthree
p525
aVwomen
p526
aVbomb
p527
aVblast
p528
aV's
p529
aVdistrict
p530
aVRajkhowa
p531
aVparole
p532
aVpublic
p533
aVmeeting
p534
aVtown
p535
aVforeign
p536
aVsecretary
p537
aVSasa
p538
aVChoudhury
p539
aVpolitical
p540
aVadvisor
p541
aVcultural
p542
aVsecretary
p543
aVpresent
p544
aVasked
p545
aVforgiveness
p546
aVfamilies
p547
aVvictims
p548
aVpeople
p549
aValso
p550
aVpaid
p551
aVobeisance
p552
aVmemorial
p553
aVslain
p554
aVchildren
p555
aVerected
p556
aVsite
p557
aVbomb
p558
aVblast
p559
aVIndependence
p560
aVDay
p561
aValong
p562
aVothers
p563
aVleading
p564
aV30-member
p565
aVULFA
p566
aVdelegation
p567
aVlater
p568
aVvisited
p569
aVhomes
p570
aV13
p571
aVfamilies
p572
aValso
p573
aVvisited
p574
aVfamilies
p575
aVvictims
p576
aVsecret
p577
aVkilling
p578
aVdistrict
p579
aVlast
p580
aVAGP
p581
aVrule
p582
aVfamilies
p583
aVULFA
p584
aVleaders
p585
aVcadres
p586
aVkilled
p587
aVunidentified
p588
aVgunmen
p589
aVtermed
p590
aVsecret
p591
aVkillings
p592
aVmedia
p593
aVsubmitted
p594
aVcourt
p595
aVchief
p596
aVjudicial
p597
aVmagistrate
p598
aVchargesheet
p599
aVULFA
p600
aVarea
p601
aVcommander
p602
aVpro-talk
p603
aVULFA
p604
aVleaders
p605
aVimplicating
p606
aVkillingULFA
p607
aVasks
p608
aVforgiveness
p609
aVbomb
p610
aVblast
p611
aVvictims
p612
aVfamilies
p613
asg114
(lp614
sg116
(lp615
VAugust 15
p616
aV2004
p617
aVMarch 25
p618
asg120
(lp619
VCID
p620
asg122
(lp621
g516
ag517
ag518
ag519
ag520
ag521
aVfor
p622
aVthe
p623
ag522
aVof
p624
ag523
ag524
aVand
p625
ag525
ag526
aVin
p626
aVa
p627
ag527
ag528
aVin
p628
ag529
ag530
aVon
p629
aV,
p630
aV.
p631
aV.
p632
aV.
p633
ag531
aV,
p634
aVwho
p635
aVis
p636
aVon
p637
ag532
aV,
p638
aVat
p639
aVa
p640
ag533
ag534
aVin
p641
ag535
aV,
p642
aVwhere
p643
aV`
p644
ag536
ag537
aV'
p645
ag538
ag539
aV,
p646
aV`
p647
ag540
ag541
aV'
p648
aVand
p649
aV`
p650
ag542
ag543
aV'
p651
aV,
p652
aVwere
p653
ag544
ag545
aVfor
p654
ag546
aVfrom
p655
aVthe
p656
ag547
aVof
p657
aVthe
p658
ag548
aVand
p659
aVthe
p660
ag549
aV.
p661
aV.
p662
aV.
p663
aVThey
p664
ag550
ag551
ag552
aVat
p665
aVthe
p666
ag553
aVto
p667
aVthe
p668
ag554
ag555
ag556
aVat
p669
aVthe
p670
ag557
aVof
p671
aVthe
p672
ag558
ag559
aVon
p673
ag560
ag561
aV.
p674
aV.
p675
aV.
p676
ag562
aVwith
p677
aVthe
p678
ag563
aV,
p679
ag564
aVa
p680
ag565
ag566
ag567
aV,
p681
ag568
ag569
aVthe
p682
ag570
aVof
p683
aVthe
p684
ag571
ag572
aV.
p685
aV.
p686
aV.
p687
aVThey
p688
ag573
ag574
aVthe
p689
ag575
aVof
p690
ag576
aVof
p691
aVthe
p692
aV`
p693
ag577
ag578
aV'
p694
aVin
p695
ag579
aV.
p696
aV.
p697
aV.
p698
aVDuring
p699
aVthe
p700
ag580
ag581
ag582
aV,
p701
ag583
aVof
p702
aVthe
p703
ag584
ag585
aVand
p704
ag586
aVwere
p705
ag587
aVby
p706
ag588
ag589
aVwhich
p707
aVwere
p708
ag590
aVas
p709
aV`
p710
ag591
ag592
aV'
p711
aVby
p712
aVthe
p713
ag593
aV.
p714
aV.
p715
aV.
p716
aVThe
p717
aVhad
p718
ag594
aVto
p719
aVthe
p720
ag595
aVof
p721
ag596
ag597
ag598
aVon
p722
ag599
aVagainst
p723
aVthen
p724
ag600
aV.
p725
aV.
p726
ag601
ag602
aVand
p727
ag603
ag604
ag605
aVand
p728
ag606
aVthem
p729
aVin
p730
aVthe
p731
ag607
ag608
aVfor
p732
ag609
aVfrom
p733
ag610
ag611
ag612
aV'
p734
ag613
aV.
p735
asg236
(lp736
g516
ag517
ag518
ag519
ag520
ag521
ag522
ag523
ag524
ag525
ag526
ag527
ag528
ag529
ag530
ag531
ag532
ag533
ag534
ag535
ag536
ag537
ag538
ag539
ag540
ag541
ag542
ag543
ag544
ag545
ag546
ag547
ag548
ag549
ag550
ag551
ag552
ag553
ag554
ag555
ag556
ag557
ag558
ag559
ag560
ag561
ag562
ag563
ag564
ag565
ag566
ag567
ag568
ag569
ag570
ag571
ag572
ag573
ag574
ag575
ag576
ag577
ag578
ag579
ag580
ag581
ag582
ag583
ag584
ag585
ag586
ag587
ag588
ag589
ag590
ag591
ag592
ag593
ag594
ag595
ag596
ag597
ag598
ag599
ag600
ag601
ag602
ag603
ag604
ag605
ag606
ag607
ag608
ag609
ag610
ag611
ag612
ag613
asssS'ev_008_st_002.html'
p737
(dp738
S'TITLE'
p739
S'IED blast rocks Imphal city \r\nTwo AR jawans hurt, vehicles damaged'
p740
sS'CONTENT'
p741
S'Imphal, September 05 2012:\r A powerful Improvised Explosive Device (IED) fitted in a scooter exploded in crowded Keishampat Junction at the heart of the capital city here this morning causing injury to two personnel of 28 Assam Rifles, one of them critically. A Hyundai i10 car and a Tata Magic Van parked nearby also suffered partial damage in the explosion.The incident occurred at around 8:45 am today near the Keishampat Community Hall.The injured have been identified as Head Constable Rajendra Kumar (32) s/o Gopal Ram of Kotyared in Almari district of Uttarkhand and Rifleman Birendra (40), hailing from Himachal Pradesh.Both of them have been admitted to Regional Institute of Medical Sciences (RIMS) for medical treatment.Though the condition of Rajendrakumar is reported to be out of danger, Birender received multiple head injuries and is said to be in a serious condition. .\n\n. '
p742
sS'LINK'
p743
S'http://e-pao.net/GP.asp?src=16..060912.sep12'
p744
sS'LOCATION'
p745
VImphal
p746
sS'TIME'
p747
F0.7729663394109397
sg12
(dp748
g14
(lp749
VImphal
p750
aVKotyared
p751
aVAlmari
p752
aVUttarkhand
p753
aVHimachal
p754
aVImphal
p755
asg20
(lp756
VRajendra Kumar
p757
aVGopal Ram
p758
aVRifleman Birendra
p759
aVRajendrakumar
p760
asg23
(lp761
Vpowerful
p762
aVImprovised
p763
aVExplosive
p764
aVDevice
p765
aVIED
p766
aVfitted
p767
aVscooter
p768
aVexploded
p769
aVcrowded
p770
aVKeishampat
p771
aVJunction
p772
aVheart
p773
aVcapital
p774
aVcity
p775
aVmorning
p776
aVcausing
p777
aVinjury
p778
aVtwo
p779
aVpersonnel
p780
aV28
p781
aVAssam
p782
aVRifles
p783
aVone
p784
aVcritically
p785
aVHyundai
p786
aVi10
p787
aVcar
p788
aVTata
p789
aVMagic
p790
aVVan
p791
aVparked
p792
aVnearby
p793
aValso
p794
aVsuffered
p795
aVpartial
p796
aVdamage
p797
aVexplosion.The
p798
aVincident
p799
aVoccurred
p800
aVaround
p801
aV8
p802
aVtoday
p803
aVnear
p804
aVKeishampat
p805
aVCommunity
p806
aVHall.The
p807
aVinjured
p808
aVidentified
p809
aVHead
p810
aVConstable
p811
aV32
p812
aVs/o
p813
aVdistrict
p814
aV40
p815
aVhailing
p816
aVPradesh.Both
p817
aVadmitted
p818
aVmedical
p819
aVtreatment.Though
p820
aVcondition
p821
aVreported
p822
aVdanger
p823
aVBirender
p824
aVreceived
p825
aVmultiple
p826
aVhead
p827
aVinjuries
p828
aVsaid
p829
aVserious
p830
aVcondition
p831
aVIED
p832
aVblast
p833
aVrocks
p834
aVcity
p835
aVTwo
p836
aVAR
p837
aVjawans
p838
aVhurt
p839
aVvehicles
p840
aVdamaged
p841
asg114
(lp842
sg116
(lp843
VSeptember 05 2012
p844
asg120
(lp845
VRegional Institute of Medical Sciences
p846
aVRIMS
p847
asg122
(lp848
V,
p849
aV
p850
aVA
p851
ag762
ag763
ag764
ag765
aV-LRB-
p852
ag766
aV-RRB-
p853
ag767
aVin
p854
aVa
p855
ag768
ag769
aVin
p856
ag770
ag771
ag772
aVat
p857
aVthe
p858
ag773
aVof
p859
aVthe
p860
ag774
ag775
aVhere
p861
aVthis
p862
ag776
ag777
ag778
aVto
p863
ag779
ag780
aVof
p864
ag781
ag782
ag783
aV,
p865
ag784
aVof
p866
aVthem
p867
ag785
aV.
p868
aVA
p869
ag786
ag787
ag788
aVand
p870
aVa
p871
ag789
ag790
ag791
ag792
ag793
ag794
ag795
ag796
ag797
aVin
p872
aVthe
p873
ag798
ag799
ag800
aVat
p874
ag801
ag802
aVam
p875
ag803
ag804
aVthe
p876
ag805
ag806
ag807
ag808
aVhave
p877
aVbeen
p878
ag809
aVas
p879
ag810
ag811
aV-LRB-
p880
ag812
aV-RRB-
p881
ag813
aVof
p882
aVin
p883
ag814
aVof
p884
aVand
p885
aV-LRB-
p886
ag815
aV-RRB-
p887
aV,
p888
ag816
aVfrom
p889
ag817
aVof
p890
aVthem
p891
aVhave
p892
aVbeen
p893
ag818
aVto
p894
aV-LRB-
p895
aV-RRB-
p896
aVfor
p897
ag819
ag820
aVthe
p898
ag821
aVof
p899
aVis
p900
ag822
aVto
p901
aVbe
p902
aVout
p903
aVof
p904
ag823
aV,
p905
ag824
ag825
ag826
ag827
ag828
aVand
p906
aVis
p907
ag829
aVto
p908
aVbe
p909
aVin
p910
aVa
p911
ag830
ag831
aV.
p912
aV.
p913
aV.
p914
ag832
ag833
ag834
ag835
ag836
ag837
ag838
ag839
aV,
p915
ag840
ag841
aV.
p916
asg236
(lp917
g762
ag763
ag764
ag765
ag766
ag767
ag768
ag769
ag770
ag771
ag772
ag773
ag774
ag775
ag776
ag777
ag778
ag779
ag780
ag781
ag782
ag783
ag784
ag785
ag786
ag787
ag788
ag789
ag790
ag791
ag792
ag793
ag794
ag795
ag796
ag797
ag798
ag799
ag800
ag801
ag802
ag803
ag804
ag805
ag806
ag807
ag808
ag809
ag810
ag811
ag812
ag813
ag814
ag815
ag816
ag817
ag818
ag819
ag820
ag821
ag822
ag823
ag824
ag825
ag826
ag827
ag828
ag829
ag830
ag831
ag832
ag833
ag834
ag835
ag836
ag837
ag838
ag839
ag840
ag841
asssS'ev_008_st_004.html'
p918
(dp919
S'TITLE'
p920
S'2 Assam Rifles personnel injured in Imphal blast'
p921
sS'CONTENT'
p922
S'Imphal: Two Assam Rifles personnel were injured, one of them seriously, in a bomb blast at Keisampat in the heart of Imphal town this morning. .\n\n. Representational image. PTI .\n\n. The bomb, planted in a two-wheeler, exploded at 9 AM at a crowded bus terminal, barely one km away from the police headquarters, official sources said. .\n\n. The Assam Rifles personnel were patrolling the area. .\n\n. The injured have been shifted to a nearby hospital where the condition of one of them was stated to be serious, sources said. .\n\n. Top police officials rushed to the area. Preliminary reports said the blast could have been triggered by an IED and investigations were on'
p923
sS'LINK'
p924
S'http://www.firstpost.com/india/2-assam-rifles-personnel-injured-in-imphal-blast-444099.html'
p925
sS'LOCATION'
p926
VImphal
p927
sS'TIME'
p928
F0.7729663394109397
sg12
(dp929
g14
(lp930
VImphal
p931
aVImphal
p932
asg20
(lp933
sg23
(lp934
VImphal
p935
aVTwo
p936
aVAssam
p937
aVRifles
p938
aVpersonnel
p939
aVinjured
p940
aVone
p941
aVseriously
p942
aVbomb
p943
aVblast
p944
aVKeisampat
p945
aVheart
p946
aVtown
p947
aVmorning
p948
aVRepresentational
p949
aVimage
p950
aVbomb
p951
aVplanted
p952
aVtwo-wheeler
p953
aVexploded
p954
aV9
p955
aVcrowded
p956
aVbus
p957
aVterminal
p958
aVbarely
p959
aVone
p960
aVkm
p961
aVaway
p962
aVpolice
p963
aVheadquarters
p964
aVofficial
p965
aVsources
p966
aVsaid
p967
aVAssam
p968
aVRifles
p969
aVpersonnel
p970
aVpatrolling
p971
aVarea
p972
aVinjured
p973
aVshifted
p974
aVnearby
p975
aVhospital
p976
aVcondition
p977
aVone
p978
aVstated
p979
aVserious
p980
aVsources
p981
aVsaid
p982
aVTop
p983
aVpolice
p984
aVofficials
p985
aVrushed
p986
aVarea
p987
aVPreliminary
p988
aVreports
p989
aVsaid
p990
aVblast
p991
aVcould
p992
aVtriggered
p993
aVIED
p994
aVinvestigations
p995
aVon2
p996
aVAssam
p997
aVRifles
p998
aVpersonnel
p999
aVinjured
p1000
aVblast
p1001
asg114
(lp1002
sg116
(lp1003
sg120
(lp1004
sg122
(lp1005
g935
ag850
ag936
ag937
ag938
ag939
aVwere
p1006
ag940
aV,
p1007
ag941
aVof
p1008
aVthem
p1009
ag942
aV,
p1010
aVin
p1011
aVa
p1012
ag943
ag944
aVat
p1013
ag945
aVin
p1014
aVthe
p1015
ag946
aVof
p1016
ag947
aVthis
p1017
ag948
aV.
p1018
aV.
p1019
aV.
p1020
ag949
ag950
aV.
p1021
aVPTI
p1022
aV.
p1023
aV.
p1024
aVThe
p1025
ag951
aV,
p1026
ag952
aVin
p1027
aVa
p1028
ag953
aV,
p1029
ag954
aVat
p1030
ag955
aVAM
p1031
aVat
p1032
aVa
p1033
ag956
ag957
ag958
aV,
p1034
ag959
ag960
ag961
ag962
aVfrom
p1035
aVthe
p1036
ag963
ag964
aV,
p1037
ag965
ag966
ag967
aV.
p1038
aV.
p1039
aV.
p1040
aVThe
p1041
ag968
ag969
ag970
aVwere
p1042
ag971
aVthe
p1043
ag972
aV.
p1044
aV.
p1045
aV.
p1046
aVThe
p1047
ag973
aVhave
p1048
aVbeen
p1049
ag974
aVto
p1050
aVa
p1051
ag975
ag976
aVwhere
p1052
aVthe
p1053
ag977
aVof
p1054
ag978
aVof
p1055
aVthem
p1056
aVwas
p1057
ag979
aVto
p1058
aVbe
p1059
ag980
aV,
p1060
ag981
ag982
aV.
p1061
aV.
p1062
aV.
p1063
ag983
ag984
ag985
ag986
aVto
p1064
aVthe
p1065
ag987
aV.
p1066
ag988
ag989
ag990
aVthe
p1067
ag991
ag992
aVhave
p1068
aVbeen
p1069
ag993
aVby
p1070
aVan
p1071
ag994
aVand
p1072
ag995
aVwere
p1073
ag996
ag997
ag998
ag999
ag1000
aVin
p1074
ag1001
aV.
p1075
asg236
(lp1076
g935
ag936
ag937
ag938
ag939
ag940
ag941
ag942
ag943
ag944
ag945
ag946
ag947
ag948
ag949
ag950
ag951
ag952
ag953
ag954
ag955
ag956
ag957
ag958
ag959
ag960
ag961
ag962
ag963
ag964
ag965
ag966
ag967
ag968
ag969
ag970
ag971
ag972
ag973
ag974
ag975
ag976
ag977
ag978
ag979
ag980
ag981
ag982
ag983
ag984
ag985
ag986
ag987
ag988
ag989
ag990
ag991
ag992
ag993
ag994
ag995
ag996
ag997
ag998
ag999
ag1000
ag1001
asssS'ev_001_st_008.html'
p1077
(dp1078
S'TITLE'
p1079
S'13 injured in ULFA bomb blast in Assam'
p1080
sS'CONTENT'
p1081
S"Thirteen persons were injured, three of them seriously, in a powerful bomb explosion by ULFA in Lower Assam's Bongaigaon district this morning, police said. .\n\n. The Programmable Time Device (PTD) was kept concealed inside a bicycle in Bongaigaon town's Paglathan Bazar. .\n\n. The bomb went off at 9.30 am. When the area near rail gate was busy with shoppers creating chaos. People ran in panic and shop keepers downed their shutters. .\n\n. The area has been cordened off, police said, adding the injured had been admitted to hospital where the condition of three was stated to be serious. .\n\n. On Friday, the ULFA triggered a powerful blast at Fancy Bazar in Guwahati, targetting Hindi-speaking businessmen and injuring five persons. .\n\n. A terror attack was averted on Sunday with the recovery of a bomb containing one kilogram of RDX near the main fish market of Assam's Jorhat district. .\n\n. "
p1082
sS'LINK'
p1083
S'http://www.hindustantimes.com/india/13-injured-in-ulfa-bomb-blast-in-assam/story-K8n5g30JEsekLXNf7FHKmK.html'
p1084
sS'LOCATION'
p1085
V Guwahati
p1086
sS'TIME'
p1087
F0.43390603085553997
sg12
(dp1088
g14
(lp1089
VAssam
p1090
aVBongaigaon
p1091
aVBongaigaon
p1092
aVPaglathan Bazar
p1093
aVGuwahati
p1094
aVAssam
p1095
aVJorhat
p1096
aVAssam
p1097
asg20
(lp1098
sg23
(lp1099
VThirteen
p1100
aVpersons
p1101
aVinjured
p1102
aVthree
p1103
aVseriously
p1104
aVpowerful
p1105
aVbomb
p1106
aVexplosion
p1107
aVLower
p1108
aV's
p1109
aVdistrict
p1110
aVmorning
p1111
aVpolice
p1112
aVsaid
p1113
aVProgrammable
p1114
aVTime
p1115
aVDevice
p1116
aVPTD
p1117
aVkept
p1118
aVconcealed
p1119
aVinside
p1120
aVbicycle
p1121
aVtown
p1122
aV's
p1123
aVbomb
p1124
aVwent
p1125
aV9.30
p1126
aVarea
p1127
aVnear
p1128
aVrail
p1129
aVgate
p1130
aVbusy
p1131
aVshoppers
p1132
aVcreating
p1133
aVchaos
p1134
aVPeople
p1135
aVran
p1136
aVpanic
p1137
aVshop
p1138
aVkeepers
p1139
aVdowned
p1140
aVshutters
p1141
aVarea
p1142
aVcordened
p1143
aVpolice
p1144
aVsaid
p1145
aVadding
p1146
aVinjured
p1147
aVadmitted
p1148
aVhospital
p1149
aVcondition
p1150
aVthree
p1151
aVstated
p1152
aVserious
p1153
aVULFA
p1154
aVtriggered
p1155
aVpowerful
p1156
aVblast
p1157
aVFancy
p1158
aVBazar
p1159
aVtargetting
p1160
aVHindi-speaking
p1161
aVbusinessmen
p1162
aVinjuring
p1163
aVfive
p1164
aVpersons
p1165
aVterror
p1166
aVattack
p1167
aVaverted
p1168
aVrecovery
p1169
aVbomb
p1170
aVcontaining
p1171
aVone
p1172
aVkilogram
p1173
aVRDX
p1174
aVnear
p1175
aVmain
p1176
aVfish
p1177
aVmarket
p1178
aV's
p1179
aVdistrict
p1180
aV.13
p1181
aVinjured
p1182
aVULFA
p1183
aVbomb
p1184
aVblast
p1185
asg114
(lp1186
sg116
(lp1187
VFriday
p1188
aVSunday
p1189
asg120
(lp1190
VULFA
p1191
asg122
(lp1192
g1100
ag1101
aVwere
p1193
ag1102
aV,
p1194
ag1103
aVof
p1195
aVthem
p1196
ag1104
aV,
p1197
aVin
p1198
aVa
p1199
ag1105
ag1106
ag1107
aVby
p1200
aVin
p1201
ag1108
ag1109
ag1110
aVthis
p1202
ag1111
aV,
p1203
ag1112
ag1113
aV.
p1204
aV.
p1205
aV.
p1206
aVThe
p1207
ag1114
ag1115
ag1116
aV-LRB-
p1208
ag1117
aV-RRB-
p1209
aVwas
p1210
ag1118
ag1119
ag1120
aVa
p1211
ag1121
aVin
p1212
ag1122
ag1123
aV.
p1213
aV.
p1214
aV.
p1215
aVThe
p1216
ag1124
ag1125
aVoff
p1217
aVat
p1218
ag1126
aVam
p1219
aV.
p1220
aVWhen
p1221
aVthe
p1222
ag1127
ag1128
ag1129
ag1130
aVwas
p1223
ag1131
aVwith
p1224
ag1132
ag1133
ag1134
aV.
p1225
ag1135
ag1136
aVin
p1226
ag1137
aVand
p1227
ag1138
ag1139
ag1140
aVtheir
p1228
ag1141
aV.
p1229
aV.
p1230
aV.
p1231
aVThe
p1232
ag1142
aVhas
p1233
aVbeen
p1234
ag1143
aVoff
p1235
aV,
p1236
ag1144
ag1145
aV,
p1237
ag1146
aVthe
p1238
ag1147
aVhad
p1239
aVbeen
p1240
ag1148
aVto
p1241
ag1149
aVwhere
p1242
aVthe
p1243
ag1150
aVof
p1244
ag1151
aVwas
p1245
ag1152
aVto
p1246
aVbe
p1247
ag1153
aV.
p1248
aV.
p1249
aV.
p1250
aVOn
p1251
aV,
p1252
aVthe
p1253
ag1154
ag1155
aVa
p1254
ag1156
ag1157
aVat
p1255
ag1158
ag1159
aVin
p1256
aV,
p1257
ag1160
ag1161
ag1162
aVand
p1258
ag1163
ag1164
ag1165
aV.
p1259
aV.
p1260
aV.
p1261
aVA
p1262
ag1166
ag1167
aVwas
p1263
ag1168
aVon
p1264
aVwith
p1265
aVthe
p1266
ag1169
aVof
p1267
aVa
p1268
ag1170
ag1171
ag1172
ag1173
aVof
p1269
ag1174
ag1175
aVthe
p1270
ag1176
ag1177
ag1178
aVof
p1271
ag1179
ag1180
aV.
p1272
aV.
p1273
ag1181
ag1182
aVin
p1274
ag1183
ag1184
ag1185
aVin
p1275
aV.
p1276
asg236
(lp1277
g1100
ag1101
ag1102
ag1103
ag1104
ag1105
ag1106
ag1107
ag1108
ag1109
ag1110
ag1111
ag1112
ag1113
ag1114
ag1115
ag1116
ag1117
ag1118
ag1119
ag1120
ag1121
ag1122
ag1123
ag1124
ag1125
ag1126
ag1127
ag1128
ag1129
ag1130
ag1131
ag1132
ag1133
ag1134
ag1135
ag1136
ag1137
ag1138
ag1139
ag1140
ag1141
ag1142
ag1143
ag1144
ag1145
ag1146
ag1147
ag1148
ag1149
ag1150
ag1151
ag1152
ag1153
ag1154
ag1155
ag1156
ag1157
ag1158
ag1159
ag1160
ag1161
ag1162
ag1163
ag1164
ag1165
ag1166
ag1167
ag1168
ag1169
ag1170
ag1171
ag1172
ag1173
ag1174
ag1175
ag1176
ag1177
ag1178
ag1179
ag1180
ag1181
ag1182
ag1183
ag1184
ag1185
asssS'ev_008_st_003.html'
p1278
(dp1279
S'TITLE'
p1280
S'Manipur explosion injures two policemen'
p1281
sS'CONTENT'
p1282
S"Two paramilitary policemen have been injured in a blast in Imphal, the capital of India's troubled north-eastern Manipur state. .\n\n. The Assam Rifles personnel were on a patrol in Keishampet locality when explosives placed in a two-wheeler scooter went off, police said. .\n\n. Reports said the condition of one of the injured policemen was serious. .\n\n. The state of Manipur borders Burma and has many separatist groups fighting for independence from India. .\n\n. But, it was not known which of the groups was behind the explosion. .\n\n. Keishampet is known to be a stronghold of the separatist group Peoples' Liberation Army (PLA) of Manipur and is known to be close to India's Maoist rebels. .\n\n. "
p1283
sS'LINK'
p1284
S'http://www.bbc.com/news/world-asia-india-19486172'
p1285
sS'LOCATION'
p1286
NsS'TIME'
p1287
F0.7729663394109397
sg12
(dp1288
g14
(lp1289
VImphal
p1290
aVBurma
p1291
aVIndia
p1292
aVIndia
p1293
asg20
(lp1294
sg23
(lp1295
VTwo
p1296
aVparamilitary
p1297
aVpolicemen
p1298
aVinjured
p1299
aVblast
p1300
aVcapital
p1301
aVIndia
p1302
aV's
p1303
aVtroubled
p1304
aVnorth-eastern
p1305
aVManipur
p1306
aVstate
p1307
aVAssam
p1308
aVRifles
p1309
aVpersonnel
p1310
aVpatrol
p1311
aVKeishampet
p1312
aVlocality
p1313
aVexplosives
p1314
aVplaced
p1315
aVtwo-wheeler
p1316
aVscooter
p1317
aVwent
p1318
aVpolice
p1319
aVsaid
p1320
aVReports
p1321
aVsaid
p1322
aVcondition
p1323
aVone
p1324
aVinjured
p1325
aVpolicemen
p1326
aVserious
p1327
aVstate
p1328
aVManipur
p1329
aVborders
p1330
aVmany
p1331
aVseparatist
p1332
aVgroups
p1333
aVfighting
p1334
aVindependence
p1335
aVknown
p1336
aVgroups
p1337
aVbehind
p1338
aVexplosion
p1339
aVKeishampet
p1340
aVknown
p1341
aVstronghold
p1342
aVseparatist
p1343
aVgroup
p1344
aVPeoples
p1345
aVLiberation
p1346
aVArmy
p1347
aVPLA
p1348
aVManipur
p1349
aVknown
p1350
aVclose
p1351
aV's
p1352
aVMaoist
p1353
aVrebels
p1354
aVManipur
p1355
aVexplosion
p1356
aVinjures
p1357
aVtwo
p1358
aVpolicemen
p1359
asg114
(lp1360
sg116
(lp1361
sg120
(lp1362
sg122
(lp1363
g1296
ag1297
ag1298
aVhave
p1364
aVbeen
p1365
ag1299
aVin
p1366
aVa
p1367
ag1300
aVin
p1368
aV,
p1369
aVthe
p1370
ag1301
aVof
p1371
ag1302
ag1303
ag1304
ag1305
ag1306
ag1307
aV.
p1372
aV.
p1373
aV.
p1374
aVThe
p1375
ag1308
ag1309
ag1310
aVwere
p1376
aVon
p1377
aVa
p1378
ag1311
aVin
p1379
ag1312
ag1313
aVwhen
p1380
ag1314
ag1315
aVin
p1381
aVa
p1382
ag1316
ag1317
ag1318
aVoff
p1383
aV,
p1384
ag1319
ag1320
aV.
p1385
aV.
p1386
aV.
p1387
ag1321
ag1322
aVthe
p1388
ag1323
aVof
p1389
ag1324
aVof
p1390
aVthe
p1391
ag1325
ag1326
aVwas
p1392
ag1327
aV.
p1393
aV.
p1394
aV.
p1395
aVThe
p1396
ag1328
aVof
p1397
ag1329
ag1330
aVand
p1398
aVhas
p1399
ag1331
ag1332
ag1333
ag1334
aVfor
p1400
ag1335
aVfrom
p1401
aV.
p1402
aV.
p1403
aV.
p1404
aVBut
p1405
aV,
p1406
aVit
p1407
aVwas
p1408
aVnot
p1409
ag1336
aVwhich
p1410
aVof
p1411
aVthe
p1412
ag1337
aVwas
p1413
ag1338
aVthe
p1414
ag1339
aV.
p1415
aV.
p1416
aV.
p1417
ag1340
aVis
p1418
ag1341
aVto
p1419
aVbe
p1420
aVa
p1421
ag1342
aVof
p1422
aVthe
p1423
ag1343
ag1344
ag1345
aV'
p1424
ag1346
ag1347
aV-LRB-
p1425
ag1348
aV-RRB-
p1426
aVof
p1427
ag1349
aVand
p1428
aVis
p1429
ag1350
aVto
p1430
aVbe
p1431
ag1351
aVto
p1432
ag1352
ag1353
ag1354
aV.
p1433
aV.
p1434
aV.
p1435
ag1355
ag1356
ag1357
ag1358
ag1359
aV.
p1436
asg236
(lp1437
g1296
ag1297
ag1298
ag1299
ag1300
ag1301
ag1302
ag1303
ag1304
ag1305
ag1306
ag1307
ag1308
ag1309
ag1310
ag1311
ag1312
ag1313
ag1314
ag1315
ag1316
ag1317
ag1318
ag1319
ag1320
ag1321
ag1322
ag1323
ag1324
ag1325
ag1326
ag1327
ag1328
ag1329
ag1330
ag1331
ag1332
ag1333
ag1334
ag1335
ag1336
ag1337
ag1338
ag1339
ag1340
ag1341
ag1342
ag1343
ag1344
ag1345
ag1346
ag1347
ag1348
ag1349
ag1350
ag1351
ag1352
ag1353
ag1354
ag1355
ag1356
ag1357
ag1358
ag1359
asssS'ev_001_st_001.html'
p1438
(dp1439
g240
S'15 hurt in blast'
p1440
sg242
S"Special Correspondent .\n\n. Guwahati: Fifteen persons, including four school children, were injured in a bomb blast suspected to have been triggered by the United Liberation Front of Asom (ULFA) in lower Assam's Bongaigaon town on Monday morning. .\n\n. Police said the blast occurred near the office of the Superintendent of Police around 9:25 a.m. The bomb was planted in a bicycle"
p1441
sg244
S'http://www.thehindu.com/todays-paper/tp-national/15-hurt-in-blast/article1845550.ece'
p1442
sg246
VGuwahati:
p1443
sg248
F0.4340813464235624
sg12
(dp1444
g14
(lp1445
VGuwahati
p1446
aVAssam
p1447
aVBongaigaon
p1448
asg20
(lp1449
sg23
(lp1450
VSpecial
p1451
aVCorrespondent
p1452
aVFifteen
p1453
aVpersons
p1454
aVincluding
p1455
aVfour
p1456
aVschool
p1457
aVchildren
p1458
aVinjured
p1459
aVbomb
p1460
aVblast
p1461
aVsuspected
p1462
aVtriggered
p1463
aVAsom
p1464
aVlower
p1465
aV's
p1466
aVtown
p1467
aVmorning
p1468
aVPolice
p1469
aVsaid
p1470
aVblast
p1471
aVoccurred
p1472
aVnear
p1473
aVoffice
p1474
aVSuperintendent
p1475
aVPolice
p1476
aVaround
p1477
aVbomb
p1478
aVplanted
p1479
aVbicycle15
p1480
aVhurt
p1481
aVblast
p1482
asg114
(lp1483
V9
p1484
asg116
(lp1485
VMonday
p1486
asg120
(lp1487
VUnited Liberation Front
p1488
aVULFA
p1489
asg122
(lp1490
g1451
ag1452
aV.
p1491
aV.
p1492
ag850
ag1453
ag1454
aV,
p1493
ag1455
ag1456
ag1457
ag1458
aV,
p1494
aVwere
p1495
ag1459
aVin
p1496
aVa
p1497
ag1460
ag1461
ag1462
aVto
p1498
aVhave
p1499
aVbeen
p1500
ag1463
aVby
p1501
aVthe
p1502
aVof
p1503
ag1464
aV-LRB-
p1504
aV-RRB-
p1505
aVin
p1506
ag1465
ag1466
ag1467
aVon
p1507
ag1468
aV.
p1508
aV.
p1509
aV.
p1510
ag1469
ag1470
aVthe
p1511
ag1471
ag1472
ag1473
aVthe
p1512
ag1474
aVof
p1513
aVthe
p1514
ag1475
aVof
p1515
ag1476
ag1477
aV.
p1516
aVThe
p1517
ag1478
aVwas
p1518
ag1479
aVin
p1519
aVa
p1520
ag1480
ag1481
aVin
p1521
ag1482
aV.
p1522
asg236
(lp1523
g1451
ag1452
ag1453
ag1454
ag1455
ag1456
ag1457
ag1458
ag1459
ag1460
ag1461
ag1462
ag1463
ag1464
ag1465
ag1466
ag1467
ag1468
ag1469
ag1470
ag1471
ag1472
ag1473
ag1474
ag1475
ag1476
ag1477
ag1478
ag1479
ag1480
ag1481
ag1482
asssS'ev_014_st_004.html'
p1524
(dp1525
g240
S'ULFA owns responsibility'
p1526
sg242
S'Front Page                 ULFA owns responsibility .\n\n. GUWAHATI,                                                                                                                        AUG. 17.                                                            The banned ULFA has owned responsibility for the Independence Day bomb blast in Dhemaji district in Assam in which 13 persons were killed.   PTI Printer friendly pageSend this article to Friends by E-MailFront PageNews: Front Page | National | Tamil Nadu | Andhra Pradesh | Karnataka | Kerala | New Delhi | Other States | International | Opinion | Business | Sport | Miscellaneous | Advts: Classifieds | Employment | Obituary |             Updates: Breaking News | .\n\n. Printer friendly pageSend this article to Friends by E-MailFront PageNews: Front Page | National | Tamil Nadu | Andhra Pradesh | Karnataka | Kerala | New Delhi | Other States | International | Opinion | Business | Sport | Miscellaneous | Advts: Classifieds | Employment | Obituary |             Updates: Breaking News | .\n\n. Front Page .\n\n. News: Front Page | National | Tamil Nadu | Andhra Pradesh | Karnataka | Kerala | New Delhi | Other States | International | Opinion | Business | Sport | Miscellaneous | Advts: Classifieds | Employment | Obituary |             Updates: Breaking News |'
p1527
sg244
S'http://www.thehindu.com/2004/08/18/stories/2004081807130106.htm'
p1528
sg246
S'GUWAHATI'
p1529
sg248
F0.25753856942496495
sg12
(dp1530
g14
(lp1531
VDhemaji
p1532
aVAssam
p1533
aVTamil Nadu
p1534
aVAndhra Pradesh
p1535
aVKarnataka
p1536
aVKerala
p1537
aVNew Delhi
p1538
aVTamil Nadu
p1539
aVAndhra Pradesh
p1540
aVKarnataka
p1541
aVKerala
p1542
aVNew Delhi
p1543
aVTamil Nadu
p1544
aVAndhra Pradesh
p1545
aVKarnataka
p1546
aVKerala
p1547
aVNew Delhi
p1548
asg20
(lp1549
sg23
(lp1550
VFront
p1551
aVPage
p1552
aVULFA
p1553
aVowns
p1554
aVresponsibility
p1555
aVGUWAHATI
p1556
aVAUG.
p1557
aV17
p1558
aVbanned
p1559
aVULFA
p1560
aVowned
p1561
aVresponsibility
p1562
aVIndependence
p1563
aVDay
p1564
aVbomb
p1565
aVblast
p1566
aVdistrict
p1567
aV13
p1568
aVpersons
p1569
aVkilled
p1570
aVPrinter
p1571
aVfriendly
p1572
aVpageSend
p1573
aVarticle
p1574
aVFriends
p1575
aVE-MailFront
p1576
aVPageNews
p1577
aVFront
p1578
aVPage
p1579
aVNational
p1580
aVStates
p1581
aVInternational
p1582
aVOpinion
p1583
aVBusiness
p1584
aVSport
p1585
aVMiscellaneous
p1586
aVAdvts
p1587
aVClassifieds
p1588
aVEmployment
p1589
aVObituary
p1590
aVUpdates
p1591
aVBreaking
p1592
aVNews
p1593
aVPrinter
p1594
aVfriendly
p1595
aVpageSend
p1596
aVarticle
p1597
aVFriends
p1598
aVE-MailFront
p1599
aVPageNews
p1600
aVFront
p1601
aVPage
p1602
aVNational
p1603
aVStates
p1604
aVInternational
p1605
aVOpinion
p1606
aVBusiness
p1607
aVSport
p1608
aVMiscellaneous
p1609
aVAdvts
p1610
aVClassifieds
p1611
aVEmployment
p1612
aVObituary
p1613
aVUpdates
p1614
aVBreaking
p1615
aVNews
p1616
aVFront
p1617
aVPage
p1618
aVNews
p1619
aVFront
p1620
aVPage
p1621
aVNational
p1622
aVStates
p1623
aVInternational
p1624
aVOpinion
p1625
aVBusiness
p1626
aVSport
p1627
aVMiscellaneous
p1628
aVAdvts
p1629
aVClassifieds
p1630
aVEmployment
p1631
aVObituary
p1632
aVUpdates
p1633
aVBreaking
p1634
aVNews
p1635
aVULFA
p1636
aVowns
p1637
aVresponsibility
p1638
asg114
(lp1639
sg116
(lp1640
sg120
(lp1641
sg122
(lp1642
g1551
ag1552
ag1553
ag1554
ag1555
aV.
p1643
aV.
p1644
ag1556
aV,
p1645
ag1557
ag1558
aV.
p1646
aVThe
p1647
ag1559
ag1560
aVhas
p1648
ag1561
ag1562
aVfor
p1649
aVthe
p1650
ag1563
ag1564
ag1565
ag1566
aVin
p1651
ag1567
aVin
p1652
aVin
p1653
aVwhich
p1654
ag1568
ag1569
aVwere
p1655
ag1570
aV.
p1656
aVPTI
p1657
ag1571
ag1572
ag1573
aVthis
p1658
ag1574
aVto
p1659
ag1575
aVby
p1660
ag1576
ag1577
ag850
ag1578
ag1579
aV|
p1661
ag1580
aV|
p1662
aV|
p1663
aV|
p1664
aV|
p1665
aV|
p1666
aV|
p1667
aVOther
p1668
ag1581
aV|
p1669
ag1582
aV|
p1670
ag1583
aV|
p1671
ag1584
aV|
p1672
ag1585
aV|
p1673
ag1586
aV|
p1674
ag1587
ag850
ag1588
aV|
p1675
ag1589
aV|
p1676
ag1590
aV|
p1677
ag1591
ag850
ag1592
ag1593
aV|
p1678
aV.
p1679
aV.
p1680
ag1594
ag1595
ag1596
aVthis
p1681
ag1597
aVto
p1682
ag1598
aVby
p1683
ag1599
ag1600
ag850
ag1601
ag1602
aV|
p1684
ag1603
aV|
p1685
aV|
p1686
aV|
p1687
aV|
p1688
aV|
p1689
aV|
p1690
aVOther
p1691
ag1604
aV|
p1692
ag1605
aV|
p1693
ag1606
aV|
p1694
ag1607
aV|
p1695
ag1608
aV|
p1696
ag1609
aV|
p1697
ag1610
ag850
ag1611
aV|
p1698
ag1612
aV|
p1699
ag1613
aV|
p1700
ag1614
ag850
ag1615
ag1616
aV|
p1701
aV.
p1702
aV.
p1703
ag1617
ag1618
aV.
p1704
aV.
p1705
ag1619
ag850
ag1620
ag1621
aV|
p1706
ag1622
aV|
p1707
aV|
p1708
aV|
p1709
aV|
p1710
aV|
p1711
aV|
p1712
aVOther
p1713
ag1623
aV|
p1714
ag1624
aV|
p1715
ag1625
aV|
p1716
ag1626
aV|
p1717
ag1627
aV|
p1718
ag1628
aV|
p1719
ag1629
ag850
ag1630
aV|
p1720
ag1631
aV|
p1721
ag1632
aV|
p1722
ag1633
ag850
ag1634
ag1635
aV|
p1723
ag1636
ag1637
ag1638
aV.
p1724
asg236
(lp1725
g1551
ag1552
ag1553
ag1554
ag1555
ag1556
ag1557
ag1558
ag1559
ag1560
ag1561
ag1562
ag1563
ag1564
ag1565
ag1566
ag1567
ag1568
ag1569
ag1570
ag1571
ag1572
ag1573
ag1574
ag1575
ag1576
ag1577
ag1578
ag1579
ag1580
ag1581
ag1582
ag1583
ag1584
ag1585
ag1586
ag1587
ag1588
ag1589
ag1590
ag1591
ag1592
ag1593
ag1594
ag1595
ag1596
ag1597
ag1598
ag1599
ag1600
ag1601
ag1602
ag1603
ag1604
ag1605
ag1606
ag1607
ag1608
ag1609
ag1610
ag1611
ag1612
ag1613
ag1614
ag1615
ag1616
ag1617
ag1618
ag1619
ag1620
ag1621
ag1622
ag1623
ag1624
ag1625
ag1626
ag1627
ag1628
ag1629
ag1630
ag1631
ag1632
ag1633
ag1634
ag1635
ag1636
ag1637
ag1638
asssS'ev_001_st_007.html'
p1726
(dp1727
S'CONTENT'
p1728
S"One person was killed and 17 others injured in two separate incidents of bomb blasts that rocked western Assam on Sunday. .\n\n. Police have said that one person died on the spot and 12 others were injured when a bomb planted by suspected ULFA militans went off in the fish market at Bohori in western Assam's Barpeta district at around 5.45 pm on Sunday. .\n\n. In another incident five persons were injured in a powerful blast that rocked Bongaigaon railway station in western Assam at around 11.30 am on Sunday. .\n\n. A police official in Bongaigaon said that suspected United Liberation Front of Asom militants planted the bomb in a motorcycle in the parking area outside the railway station. All the injured persons were daily-wage workers. .\n\n. The blast is the latest in the series of attacks engineered by the banned ULFA since January 5.  .\n\n. The explosions and shootouts have so far claimed 78 lives, including those of about 60 Hindi-speaking persons in the state, sending the police and the Army engaged in counter-insurgency operations into a tizzy. .\n\n. A commander of the banned militant group called up local newspapers stating that it would train its guns on government officials if the government do not stop the latest Army crackdown on the outfit.  .\n\n. The outfit had earlier threatened to kill members of ruling Congress party in the state. .\n\n. The militant group has been triggering blasts in different parts of the state almost regularly though the police and the Army have intensified operations against it.  .\n\n. The group triggered two blasts in the high-security capital of Guwahati last week, killing four persons and injuring many."
p1729
sS'LINK'
p1730
S'http://www.rediff.com/news/2007/jan/21assam.htm'
p1731
sS'TITLE'
p1732
S'Assam: 1 killed, 17 injured in two blasts'
p1733
sg12
(dp1734
g14
(lp1735
VAssam
p1736
aVBohori
p1737
aVAssam
p1738
aVBarpeta
p1739
aVAssam
p1740
aVBongaigaon
p1741
aVGuwahati
p1742
asg20
(lp1743
sg23
(lp1744
VOne
p1745
aVperson
p1746
aVkilled
p1747
aV17
p1748
aVothers
p1749
aVinjured
p1750
aVtwo
p1751
aVseparate
p1752
aVincidents
p1753
aVbomb
p1754
aVblasts
p1755
aVrocked
p1756
aVwestern
p1757
aVPolice
p1758
aVsaid
p1759
aVone
p1760
aVperson
p1761
aVdied
p1762
aVspot
p1763
aV12
p1764
aVothers
p1765
aVinjured
p1766
aVbomb
p1767
aVplanted
p1768
aVsuspected
p1769
aVULFA
p1770
aVmilitans
p1771
aVwent
p1772
aVfish
p1773
aVmarket
p1774
aVwestern
p1775
aV's
p1776
aVdistrict
p1777
aVaround
p1778
aVanother
p1779
aVincident
p1780
aVfive
p1781
aVpersons
p1782
aVinjured
p1783
aVpowerful
p1784
aVblast
p1785
aVrocked
p1786
aVBongaigaon
p1787
aVrailway
p1788
aVstation
p1789
aVwestern
p1790
aVaround
p1791
aV11.30
p1792
aVpolice
p1793
aVofficial
p1794
aVsaid
p1795
aVsuspected
p1796
aVUnited
p1797
aVLiberation
p1798
aVFront
p1799
aVAsom
p1800
aVmilitants
p1801
aVplanted
p1802
aVbomb
p1803
aVmotorcycle
p1804
aVparking
p1805
aVarea
p1806
aVoutside
p1807
aVrailway
p1808
aVstation
p1809
aVinjured
p1810
aVpersons
p1811
aVdaily-wage
p1812
aVworkers
p1813
aVblast
p1814
aVlatest
p1815
aVseries
p1816
aVattacks
p1817
aVengineered
p1818
aVbanned
p1819
aVULFA
p1820
aVsince
p1821
aVexplosions
p1822
aVshootouts
p1823
aVfar
p1824
aVclaimed
p1825
aV78
p1826
aVlives
p1827
aVincluding
p1828
aV60
p1829
aVHindi-speaking
p1830
aVpersons
p1831
aVstate
p1832
aVsending
p1833
aVpolice
p1834
aVArmy
p1835
aVengaged
p1836
aVcounter-insurgency
p1837
aVoperations
p1838
aVtizzy
p1839
aVcommander
p1840
aVbanned
p1841
aVmilitant
p1842
aVgroup
p1843
aVcalled
p1844
aVlocal
p1845
aVnewspapers
p1846
aVstating
p1847
aVwould
p1848
aVtrain
p1849
aVguns
p1850
aVgovernment
p1851
aVofficials
p1852
aVgovernment
p1853
aVstop
p1854
aVlatest
p1855
aVArmy
p1856
aVcrackdown
p1857
aVoutfit
p1858
aVoutfit
p1859
aVearlier
p1860
aVthreatened
p1861
aVkill
p1862
aVmembers
p1863
aVruling
p1864
aVparty
p1865
aVstate
p1866
aVmilitant
p1867
aVgroup
p1868
aVtriggering
p1869
aVblasts
p1870
aVdifferent
p1871
aVparts
p1872
aVstate
p1873
aValmost
p1874
aVregularly
p1875
aVthough
p1876
aVpolice
p1877
aVArmy
p1878
aVintensified
p1879
aVoperations
p1880
aVgroup
p1881
aVtriggered
p1882
aVtwo
p1883
aVblasts
p1884
aVhigh-security
p1885
aVcapital
p1886
aVlast
p1887
aVweek
p1888
aVkilling
p1889
aVfour
p1890
aVpersons
p1891
aVinjuring
p1892
aVmany.Assam
p1893
aV1
p1894
aVkilled
p1895
aV17
p1896
aVinjured
p1897
aVtwo
p1898
aVblasts
p1899
asg114
(lp1900
V5.45 pm
p1901
asg116
(lp1902
VSunday
p1903
aVSunday
p1904
aVSunday
p1905
aVJanuary 5
p1906
asg120
(lp1907
VCongress
p1908
asg122
(lp1909
g1745
ag1746
aVwas
p1910
ag1747
aVand
p1911
ag1748
ag1749
ag1750
aVin
p1912
ag1751
ag1752
ag1753
aVof
p1913
ag1754
ag1755
aVthat
p1914
ag1756
ag1757
aVon
p1915
aV.
p1916
aV.
p1917
aV.
p1918
ag1758
aVhave
p1919
ag1759
aVthat
p1920
ag1760
ag1761
ag1762
aVon
p1921
aVthe
p1922
ag1763
aVand
p1923
ag1764
ag1765
aVwere
p1924
ag1766
aVwhen
p1925
aVa
p1926
ag1767
ag1768
aVby
p1927
ag1769
ag1770
ag1771
ag1772
aVoff
p1928
aVin
p1929
aVthe
p1930
ag1773
ag1774
aVat
p1931
aVin
p1932
ag1775
ag1776
ag1777
aVat
p1933
ag1778
aVon
p1934
aV.
p1935
aV.
p1936
aV.
p1937
aVIn
p1938
ag1779
ag1780
ag1781
ag1782
aVwere
p1939
ag1783
aVin
p1940
aVa
p1941
ag1784
ag1785
aVthat
p1942
ag1786
ag1787
ag1788
ag1789
aVin
p1943
ag1790
aVat
p1944
ag1791
ag1792
aVam
p1945
aVon
p1946
aV.
p1947
aV.
p1948
aV.
p1949
aVA
p1950
ag1793
ag1794
aVin
p1951
ag1795
aVthat
p1952
ag1796
ag1797
ag1798
ag1799
aVof
p1953
ag1800
ag1801
ag1802
aVthe
p1954
ag1803
aVin
p1955
aVa
p1956
ag1804
aVin
p1957
aVthe
p1958
ag1805
ag1806
ag1807
aVthe
p1959
ag1808
ag1809
aV.
p1960
aVAll
p1961
aVthe
p1962
ag1810
ag1811
aVwere
p1963
ag1812
ag1813
aV.
p1964
aV.
p1965
aV.
p1966
aVThe
p1967
ag1814
aVis
p1968
aVthe
p1969
ag1815
aVin
p1970
aVthe
p1971
ag1816
aVof
p1972
ag1817
ag1818
aVby
p1973
aVthe
p1974
ag1819
ag1820
ag1821
aV.
p1975
aV.
p1976
aV.
p1977
aVThe
p1978
ag1822
aVand
p1979
ag1823
aVhave
p1980
aVso
p1981
ag1824
ag1825
ag1826
ag1827
aV,
p1982
ag1828
aVthose
p1983
aVof
p1984
aVabout
p1985
ag1829
ag1830
ag1831
aVin
p1986
aVthe
p1987
ag1832
aV,
p1988
ag1833
aVthe
p1989
ag1834
aVand
p1990
aVthe
p1991
ag1835
ag1836
aVin
p1992
ag1837
ag1838
aVinto
p1993
aVa
p1994
ag1839
aV.
p1995
aV.
p1996
aV.
p1997
aVA
p1998
ag1840
aVof
p1999
aVthe
p2000
ag1841
ag1842
ag1843
ag1844
aVup
p2001
ag1845
ag1846
ag1847
aVthat
p2002
aVit
p2003
ag1848
ag1849
aVits
p2004
ag1850
aVon
p2005
ag1851
ag1852
aVif
p2006
aVthe
p2007
ag1853
aVdo
p2008
aVnot
p2009
ag1854
aVthe
p2010
ag1855
ag1856
ag1857
aVon
p2011
aVthe
p2012
ag1858
aV.
p2013
aV.
p2014
aV.
p2015
aVThe
p2016
ag1859
aVhad
p2017
ag1860
ag1861
aVto
p2018
ag1862
ag1863
aVof
p2019
ag1864
ag1865
aVin
p2020
aVthe
p2021
ag1866
aV.
p2022
aV.
p2023
aV.
p2024
aVThe
p2025
ag1867
ag1868
aVhas
p2026
aVbeen
p2027
ag1869
ag1870
aVin
p2028
ag1871
ag1872
aVof
p2029
aVthe
p2030
ag1873
ag1874
ag1875
ag1876
aVthe
p2031
ag1877
aVand
p2032
aVthe
p2033
ag1878
aVhave
p2034
ag1879
ag1880
aVagainst
p2035
aVit
p2036
aV.
p2037
aV.
p2038
aV.
p2039
aVThe
p2040
ag1881
ag1882
ag1883
ag1884
aVin
p2041
aVthe
p2042
ag1885
ag1886
aVof
p2043
ag1887
ag1888
aV,
p2044
ag1889
ag1890
ag1891
aVand
p2045
ag1892
ag1893
ag850
ag1894
ag1895
aV,
p2046
ag1896
ag1897
aVin
p2047
ag1898
ag1899
aV.
p2048
asg236
(lp2049
g1745
ag1746
ag1747
ag1748
ag1749
ag1750
ag1751
ag1752
ag1753
ag1754
ag1755
ag1756
ag1757
ag1758
ag1759
ag1760
ag1761
ag1762
ag1763
ag1764
ag1765
ag1766
ag1767
ag1768
ag1769
ag1770
ag1771
ag1772
ag1773
ag1774
ag1775
ag1776
ag1777
ag1778
ag1779
ag1780
ag1781
ag1782
ag1783
ag1784
ag1785
ag1786
ag1787
ag1788
ag1789
ag1790
ag1791
ag1792
ag1793
ag1794
ag1795
ag1796
ag1797
ag1798
ag1799
ag1800
ag1801
ag1802
ag1803
ag1804
ag1805
ag1806
ag1807
ag1808
ag1809
ag1810
ag1811
ag1812
ag1813
ag1814
ag1815
ag1816
ag1817
ag1818
ag1819
ag1820
ag1821
ag1822
ag1823
ag1824
ag1825
ag1826
ag1827
ag1828
ag1829
ag1830
ag1831
ag1832
ag1833
ag1834
ag1835
ag1836
ag1837
ag1838
ag1839
ag1840
ag1841
ag1842
ag1843
ag1844
ag1845
ag1846
ag1847
ag1848
ag1849
ag1850
ag1851
ag1852
ag1853
ag1854
ag1855
ag1856
ag1857
ag1858
ag1859
ag1860
ag1861
ag1862
ag1863
ag1864
ag1865
ag1866
ag1867
ag1868
ag1869
ag1870
ag1871
ag1872
ag1873
ag1874
ag1875
ag1876
ag1877
ag1878
ag1879
ag1880
ag1881
ag1882
ag1883
ag1884
ag1885
ag1886
ag1887
ag1888
ag1889
ag1890
ag1891
ag1892
ag1893
ag1894
ag1895
ag1896
ag1897
ag1898
ag1899
assS'TIME'
p2050
F0.41286816269284715
ssS'ev_008_st_005.html'
p2051
(dp2052
S'TITLE'
p2053
S'Blast in Imphal, two troopers injured (Lead)'
p2054
sS'CONTENT'
p2055
S'Imphal, Sep 5  (IANS) Two security personnel were injured in a bomb blast triggered Wednesday by suspected militants in the Manipur capital, police said. A security alert has been sounded. .\n\n. The two Assam Rifles troopers were on routine patrolling when the blast hit them in the Keisampat area, a few kilometres from the Manipur Police headquarters. .\n\n. Their condition is stated to be stable, an Assam Rifles official said. .\n\n. A security alert has been sounded and Keisampat has been cordoned off, Imphal district police chief Konsam Jayanta Singh told IANS. .\n\n. He said preliminary reports suggested that the blast could have been triggered by an Improvised Explosive Device. .\n\n. We have found the wreckage of a scooter from the blast site, he said. .\n\n. No arrests had been made so far, he added. .\n\n. Though no rebel group has claimed responsibility for the blasts, Manipur Police and intelligence officials said the blasts were carried out by rebels. .\n\n. On Monday, a youth was killed in a village of Manipurs Thoubal district after a bomb, suspected to have been planted by militants, went off at his house. .\n\n. There are more than 20 rebel outfits in Manipur with demands ranging from secession to greater autonomy. .\n\n. '
p2056
sS'LINK'
p2057
S'http://www.thaindian.com/newsportal/uncategorized/blast-in-imphal-two-troopers-injured-lead_100643026.html'
p2058
sS'LOCATION'
p2059
V Imphal
p2060
sS'TIME'
p2061
F0.7729663394109397
sg12
(dp2062
g14
(lp2063
VImphal
p2064
aVImphal
p2065
aVImphal
p2066
asg20
(lp2067
VKonsam Jayanta Singh
p2068
asg23
(lp2069
VSep
p2070
aV5
p2071
aVIANS
p2072
aVTwo
p2073
aVsecurity
p2074
aVpersonnel
p2075
aVinjured
p2076
aVbomb
p2077
aVblast
p2078
aVtriggered
p2079
aVsuspected
p2080
aVmilitants
p2081
aVManipur
p2082
aVcapital
p2083
aVpolice
p2084
aVsaid
p2085
aVsecurity
p2086
aValert
p2087
aVsounded
p2088
aVtwo
p2089
aVAssam
p2090
aVRifles
p2091
aVtroopers
p2092
aVroutine
p2093
aVpatrolling
p2094
aVblast
p2095
aVhit
p2096
aVKeisampat
p2097
aVarea
p2098
aVkilometres
p2099
aVManipur
p2100
aVPolice
p2101
aVheadquarters
p2102
aVcondition
p2103
aVstated
p2104
aVstable
p2105
aVAssam
p2106
aVRifles
p2107
aVofficial
p2108
aVsaid
p2109
aVsecurity
p2110
aValert
p2111
aVsounded
p2112
aVKeisampat
p2113
aVcordoned
p2114
aVdistrict
p2115
aVpolice
p2116
aVchief
p2117
aVtold
p2118
aVIANS
p2119
aVsaid
p2120
aVpreliminary
p2121
aVreports
p2122
aVsuggested
p2123
aVblast
p2124
aVcould
p2125
aVtriggered
p2126
aVImprovised
p2127
aVExplosive
p2128
aVDevice
p2129
aVfound
p2130
aVwreckage
p2131
aVscooter
p2132
aVblast
p2133
aVsite
p2134
aVsaid
p2135
aVarrests
p2136
aVmade
p2137
aVfar
p2138
aVadded
p2139
aVThough
p2140
aVrebel
p2141
aVgroup
p2142
aVclaimed
p2143
aVresponsibility
p2144
aVblasts
p2145
aVManipur
p2146
aVPolice
p2147
aVintelligence
p2148
aVofficials
p2149
aVsaid
p2150
aVblasts
p2151
aVcarried
p2152
aVrebels
p2153
aVyouth
p2154
aVkilled
p2155
aVvillage
p2156
aVManipurs
p2157
aVThoubal
p2158
aVdistrict
p2159
aVbomb
p2160
aVsuspected
p2161
aVplanted
p2162
aVmilitants
p2163
aVwent
p2164
aVhouse
p2165
aV20
p2166
aVrebel
p2167
aVoutfits
p2168
aVManipur
p2169
aVdemands
p2170
aVranging
p2171
aVsecession
p2172
aVgreater
p2173
aVautonomy
p2174
aVBlast
p2175
aVtwo
p2176
aVtroopers
p2177
aVinjured
p2178
aVLead
p2179
asg114
(lp2180
sg116
(lp2181
VWednesday
p2182
aVMonday
p2183
asg120
(lp2184
sg122
(lp2185
V,
p2186
ag2070
ag2071
aV-LRB-
p2187
ag2072
aV-RRB-
p2188
ag2073
ag2074
ag2075
aVwere
p2189
ag2076
aVin
p2190
aVa
p2191
ag2077
ag2078
ag2079
aVby
p2192
ag2080
ag2081
aVin
p2193
aVthe
p2194
ag2082
ag2083
aV,
p2195
ag2084
ag2085
aV.
p2196
aVA
p2197
ag2086
ag2087
aVhas
p2198
aVbeen
p2199
ag2088
aV.
p2200
aV.
p2201
aV.
p2202
aVThe
p2203
ag2089
ag2090
ag2091
ag2092
aVwere
p2204
aVon
p2205
ag2093
ag2094
aVwhen
p2206
aVthe
p2207
ag2095
ag2096
aVthem
p2208
aVin
p2209
aVthe
p2210
ag2097
ag2098
aV,
p2211
aVa
p2212
aVfew
p2213
ag2099
aVfrom
p2214
aVthe
p2215
ag2100
ag2101
ag2102
aV.
p2216
aV.
p2217
aV.
p2218
aVTheir
p2219
ag2103
aVis
p2220
ag2104
aVto
p2221
aVbe
p2222
ag2105
aV,
p2223
aVan
p2224
ag2106
ag2107
ag2108
ag2109
aV.
p2225
aV.
p2226
aV.
p2227
aVA
p2228
ag2110
ag2111
aVhas
p2229
aVbeen
p2230
ag2112
aVand
p2231
ag2113
aVhas
p2232
aVbeen
p2233
ag2114
aVoff
p2234
aV,
p2235
ag2115
ag2116
ag2117
ag2118
ag2119
aV.
p2236
aV.
p2237
aV.
p2238
aVHe
p2239
ag2120
ag2121
ag2122
ag2123
aVthat
p2240
aVthe
p2241
ag2124
ag2125
aVhave
p2242
aVbeen
p2243
ag2126
aVby
p2244
aVan
p2245
ag2127
ag2128
ag2129
aV.
p2246
aV.
p2247
aV.
p2248
aVWe
p2249
aVhave
p2250
ag2130
aVthe
p2251
ag2131
aVof
p2252
aVa
p2253
ag2132
aVfrom
p2254
aVthe
p2255
ag2133
ag2134
aV,
p2256
aVhe
p2257
ag2135
aV.
p2258
aV.
p2259
aV.
p2260
aVNo
p2261
ag2136
aVhad
p2262
aVbeen
p2263
ag2137
aVso
p2264
ag2138
aV,
p2265
aVhe
p2266
ag2139
aV.
p2267
aV.
p2268
aV.
p2269
ag2140
aVno
p2270
ag2141
ag2142
aVhas
p2271
ag2143
ag2144
aVfor
p2272
aVthe
p2273
ag2145
aV,
p2274
ag2146
ag2147
aVand
p2275
ag2148
ag2149
ag2150
aVthe
p2276
ag2151
aVwere
p2277
ag2152
aVout
p2278
aVby
p2279
ag2153
aV.
p2280
aV.
p2281
aV.
p2282
aVOn
p2283
aV,
p2284
aVa
p2285
ag2154
aVwas
p2286
ag2155
aVin
p2287
aVa
p2288
ag2156
aVof
p2289
ag2157
ag2158
ag2159
aVafter
p2290
aVa
p2291
ag2160
aV,
p2292
ag2161
aVto
p2293
aVhave
p2294
aVbeen
p2295
ag2162
aVby
p2296
ag2163
aV,
p2297
ag2164
aVoff
p2298
aVat
p2299
aVhis
p2300
ag2165
aV.
p2301
aV.
p2302
aV.
p2303
aVThere
p2304
aVare
p2305
aVmore
p2306
aVthan
p2307
ag2166
ag2167
ag2168
aVin
p2308
ag2169
aVwith
p2309
ag2170
ag2171
aVfrom
p2310
ag2172
aVto
p2311
ag2173
ag2174
aV.
p2312
aV.
p2313
aV.
p2314
ag2175
aVin
p2315
aV,
p2316
ag2176
ag2177
ag2178
aV-LRB-
p2317
ag2179
aV-RRB-
p2318
aV.
p2319
asg236
(lp2320
g2070
ag2071
ag2072
ag2073
ag2074
ag2075
ag2076
ag2077
ag2078
ag2079
ag2080
ag2081
ag2082
ag2083
ag2084
ag2085
ag2086
ag2087
ag2088
ag2089
ag2090
ag2091
ag2092
ag2093
ag2094
ag2095
ag2096
ag2097
ag2098
ag2099
ag2100
ag2101
ag2102
ag2103
ag2104
ag2105
ag2106
ag2107
ag2108
ag2109
ag2110
ag2111
ag2112
ag2113
ag2114
ag2115
ag2116
ag2117
ag2118
ag2119
ag2120
ag2121
ag2122
ag2123
ag2124
ag2125
ag2126
ag2127
ag2128
ag2129
ag2130
ag2131
ag2132
ag2133
ag2134
ag2135
ag2136
ag2137
ag2138
ag2139
ag2140
ag2141
ag2142
ag2143
ag2144
ag2145
ag2146
ag2147
ag2148
ag2149
ag2150
ag2151
ag2152
ag2153
ag2154
ag2155
ag2156
ag2157
ag2158
ag2159
ag2160
ag2161
ag2162
ag2163
ag2164
ag2165
ag2166
ag2167
ag2168
ag2169
ag2170
ag2171
ag2172
ag2173
ag2174
ag2175
ag2176
ag2177
ag2178
ag2179
asssS'ev_001_st_003.html'
p2321
(dp2322
S'TITLE'
p2323
S'ULFA blast wounds 13'
p2324
sS'CONTENT'
p2325
S"At least 13 people were injured in a bomb blast triggered off by the United Liberation Front of Asom (ULFA) in Lower Assams Bongaigaon district this morning. .\n\n. Guwahati, May 21 : At least 13 people were injured in a bomb blast triggered off by the United Liberation Front of Asom (ULFA) in Lower Assam's Bongaigaon district this morning. .\n\n. The injured have been admitted to a nearby hospital. According to preliminary reports, the Programmable Time Device (PTD) was kept in a bicycle in the Paglathan Bazar, police said. .\n\n. Assam Police have cordoned off the area and are investigating into the matter. .\n\n. Yesterday, a terror attack was averted when police recovered a one kilogram RDX (Research and Development Explosive) bomb in Jorhat. .\n\n. On May 18, in Guwahati, five persons were injured in a ULFA bomb blast. .\n\n. Earlier on May 14, two persons were killed and eight injured by a bomb blast that followed ethnic clashes in eastern Assam the day before. .\n\n. addthis_url=location.href;addthis_title=document.title;addthis_pub='vijaytech'; .\n\n. a36(); .\n\n. "
p2326
sS'LINK'
p2327
S'http://www.andhranews.net/India/2007/May/21-ULFA-blast-wounds-2024.asp'
p2328
sS'LOCATION'
p2329
VGuwahati
p2330
sS'TIME'
p2331
F0.43390603085553997
sg12
(dp2332
g14
(lp2333
VGuwahati
p2334
aVAssam
p2335
aVBongaigaon
p2336
aVPaglathan Bazar
p2337
aVAssam
p2338
aVJorhat
p2339
aVGuwahati
p2340
asg20
(lp2341
sg23
(lp2342
Vleast
p2343
aV13
p2344
aVpeople
p2345
aVinjured
p2346
aVbomb
p2347
aVblast
p2348
aVtriggered
p2349
aVAsom
p2350
aVLower
p2351
aVAssams
p2352
aVBongaigaon
p2353
aVdistrict
p2354
aVmorning
p2355
aVleast
p2356
aV13
p2357
aVpeople
p2358
aVinjured
p2359
aVbomb
p2360
aVblast
p2361
aVtriggered
p2362
aVAsom
p2363
aVLower
p2364
aV's
p2365
aVdistrict
p2366
aVmorning
p2367
aVinjured
p2368
aVadmitted
p2369
aVnearby
p2370
aVhospital
p2371
aVAccording
p2372
aVpreliminary
p2373
aVreports
p2374
aVProgrammable
p2375
aVTime
p2376
aVDevice
p2377
aVPTD
p2378
aVkept
p2379
aVbicycle
p2380
aVpolice
p2381
aVsaid
p2382
aVPolice
p2383
aVcordoned
p2384
aVarea
p2385
aVinvestigating
p2386
aVmatter
p2387
aVYesterday
p2388
aVterror
p2389
aVattack
p2390
aVaverted
p2391
aVpolice
p2392
aVrecovered
p2393
aVone
p2394
aVkilogram
p2395
aVRDX
p2396
aVResearch
p2397
aVDevelopment
p2398
aVExplosive
p2399
aVbomb
p2400
aVfive
p2401
aVpersons
p2402
aVinjured
p2403
aVULFA
p2404
aVbomb
p2405
aVblast
p2406
aVEarlier
p2407
aV14
p2408
aVtwo
p2409
aVpersons
p2410
aVkilled
p2411
aVeight
p2412
aVinjured
p2413
aVbomb
p2414
aVblast
p2415
aVfollowed
p2416
aVethnic
p2417
aVclashes
p2418
aVeastern
p2419
aVAssam
p2420
aVday
p2421
aVaddthis_url
p2422
aVlocation.href
p2423
aVaddthis_title
p2424
aVdocument.title
p2425
aVaddthis_pub
p2426
aVvijaytech
p2427
aVa36
p2428
aVULFA
p2429
aVblast
p2430
aVwounds
p2431
aV13
p2432
asg114
(lp2433
sg116
(lp2434
VMay 21
p2435
aVMay 18
p2436
aVMay
p2437
asg120
(lp2438
VUnited Liberation Front
p2439
aVULFA
p2440
aVUnited Liberation Front
p2441
aVULFA
p2442
asg122
(lp2443
VAt
p2444
ag2343
ag2344
ag2345
aVwere
p2445
ag2346
aVin
p2446
aVa
p2447
ag2347
ag2348
ag2349
aVoff
p2448
aVby
p2449
aVthe
p2450
aVof
p2451
ag2350
aV-LRB-
p2452
aV-RRB-
p2453
aVin
p2454
ag2351
ag2352
ag2353
ag2354
aVthis
p2455
ag2355
aV.
p2456
aV.
p2457
aV.
p2458
aV,
p2459
ag850
aVAt
p2460
ag2356
ag2357
ag2358
aVwere
p2461
ag2359
aVin
p2462
aVa
p2463
ag2360
ag2361
ag2362
aVoff
p2464
aVby
p2465
aVthe
p2466
aVof
p2467
ag2363
aV-LRB-
p2468
aV-RRB-
p2469
aVin
p2470
ag2364
ag2365
ag2366
aVthis
p2471
ag2367
aV.
p2472
aV.
p2473
aV.
p2474
aVThe
p2475
ag2368
aVhave
p2476
aVbeen
p2477
ag2369
aVto
p2478
aVa
p2479
ag2370
ag2371
aV.
p2480
ag2372
aVto
p2481
ag2373
ag2374
aV,
p2482
aVthe
p2483
ag2375
ag2376
ag2377
aV-LRB-
p2484
ag2378
aV-RRB-
p2485
aVwas
p2486
ag2379
aVin
p2487
aVa
p2488
ag2380
aVin
p2489
aVthe
p2490
aV,
p2491
ag2381
ag2382
aV.
p2492
aV.
p2493
aV.
p2494
ag2383
aVhave
p2495
ag2384
aVoff
p2496
aVthe
p2497
ag2385
aVand
p2498
aVare
p2499
ag2386
aVinto
p2500
aVthe
p2501
ag2387
aV.
p2502
aV.
p2503
aV.
p2504
ag2388
aV,
p2505
aVa
p2506
ag2389
ag2390
aVwas
p2507
ag2391
aVwhen
p2508
ag2392
ag2393
aVa
p2509
ag2394
ag2395
ag2396
aV-LRB-
p2510
ag2397
aVand
p2511
ag2398
ag2399
aV-RRB-
p2512
ag2400
aVin
p2513
aV.
p2514
aV.
p2515
aV.
p2516
aVOn
p2517
aV,
p2518
aVin
p2519
aV,
p2520
ag2401
ag2402
aVwere
p2521
ag2403
aVin
p2522
aVa
p2523
ag2404
ag2405
ag2406
aV.
p2524
aV.
p2525
aV.
p2526
ag2407
aVon
p2527
ag2408
aV,
p2528
ag2409
ag2410
aVwere
p2529
ag2411
aVand
p2530
ag2412
ag2413
aVby
p2531
aVa
p2532
ag2414
ag2415
aVthat
p2533
ag2416
ag2417
ag2418
aVin
p2534
ag2419
ag2420
aVthe
p2535
ag2421
aVbefore
p2536
aV.
p2537
aV.
p2538
aV.
p2539
ag2422
aV=
p2540
ag2423
aV;
p2541
ag2424
aV=
p2542
ag2425
aV;
p2543
ag2426
aV=
p2544
aV`
p2545
ag2427
aV'
p2546
aV;
p2547
aV.
p2548
aV.
p2549
ag2428
aV-LRB-
p2550
aV-RRB-
p2551
aV;
p2552
aV.
p2553
aV.
p2554
ag2429
ag2430
ag2431
ag2432
aV.
p2555
asg236
(lp2556
g2343
ag2344
ag2345
ag2346
ag2347
ag2348
ag2349
ag2350
ag2351
ag2352
ag2353
ag2354
ag2355
ag2356
ag2357
ag2358
ag2359
ag2360
ag2361
ag2362
ag2363
ag2364
ag2365
ag2366
ag2367
ag2368
ag2369
ag2370
ag2371
ag2372
ag2373
ag2374
ag2375
ag2376
ag2377
ag2378
ag2379
ag2380
ag2381
ag2382
ag2383
ag2384
ag2385
ag2386
ag2387
ag2388
ag2389
ag2390
ag2391
ag2392
ag2393
ag2394
ag2395
ag2396
ag2397
ag2398
ag2399
ag2400
ag2401
ag2402
ag2403
ag2404
ag2405
ag2406
ag2407
ag2408
ag2409
ag2410
ag2411
ag2412
ag2413
ag2414
ag2415
ag2416
ag2417
ag2418
ag2419
ag2420
ag2421
ag2422
ag2423
ag2424
ag2425
ag2426
ag2427
ag2428
ag2429
ag2430
ag2431
ag2432
asssS'ev_008_st_001.html'
p2557
(dp2558
g240
S'Blast in Imphal, two troopers injured'
p2559
sg242
S'Two security personnel were injured in a bomb blast triggered Wednesday by suspected militants in the Manipur capital, police said. .\n\n. A security alert has been sounded. .\n\n. The two Assam Rifles troopers were on routine patrolling when the blast hit them in the Keisampat area, a few kilometres from the Manipur Police headquarters. .\n\n. Their condition is stated to be stable, an Assam Rifles official said. .\n\n. A security alert has been sounded and Keisampat has been cordoned off, Imphal district police chief Konsam Jayanta Singh told IANS. .\n\n. He said preliminary reports suggested that the blast could have been triggered by an Improvised Explosive Device. .\n\n. We have found the wreckage of a scooter from the blast site, he said. .\n\n. No arrests had been made so far, he added. .\n\n. Though no rebel group has claimed responsibility for the blasts, Manipur Police and intelligence officials said the blasts were carried out by rebels. .\n\n. On Monday, a youth was killed in a village of Manipurs Thoubal district after a bomb, suspected to have been planted by militants, went off at his house. .\n\n. There are more than 20 rebel outfits in Manipur with demands ranging from secession to greater autonomy.IANS'
p2560
sg244
S'http://www.thehindu.com/todays-paper/tp-in-school/blast-in-imphal-two-troopers-injured/article3863812.ece'
p2561
sg246
VImphal,
p2562
sg248
F0.7731416549789621
sg12
(dp2563
g14
(lp2564
VImphal
p2565
aVImphal
p2566
asg20
(lp2567
VKonsam Jayanta Singh
p2568
asg23
(lp2569
VTwo
p2570
aVsecurity
p2571
aVpersonnel
p2572
aVinjured
p2573
aVbomb
p2574
aVblast
p2575
aVtriggered
p2576
aVsuspected
p2577
aVmilitants
p2578
aVManipur
p2579
aVcapital
p2580
aVpolice
p2581
aVsaid
p2582
aVsecurity
p2583
aValert
p2584
aVsounded
p2585
aVtwo
p2586
aVAssam
p2587
aVRifles
p2588
aVtroopers
p2589
aVroutine
p2590
aVpatrolling
p2591
aVblast
p2592
aVhit
p2593
aVKeisampat
p2594
aVarea
p2595
aVkilometres
p2596
aVManipur
p2597
aVPolice
p2598
aVheadquarters
p2599
aVcondition
p2600
aVstated
p2601
aVstable
p2602
aVAssam
p2603
aVRifles
p2604
aVofficial
p2605
aVsaid
p2606
aVsecurity
p2607
aValert
p2608
aVsounded
p2609
aVKeisampat
p2610
aVcordoned
p2611
aVdistrict
p2612
aVpolice
p2613
aVchief
p2614
aVtold
p2615
aVIANS
p2616
aVsaid
p2617
aVpreliminary
p2618
aVreports
p2619
aVsuggested
p2620
aVblast
p2621
aVcould
p2622
aVtriggered
p2623
aVImprovised
p2624
aVExplosive
p2625
aVDevice
p2626
aVfound
p2627
aVwreckage
p2628
aVscooter
p2629
aVblast
p2630
aVsite
p2631
aVsaid
p2632
aVarrests
p2633
aVmade
p2634
aVfar
p2635
aVadded
p2636
aVThough
p2637
aVrebel
p2638
aVgroup
p2639
aVclaimed
p2640
aVresponsibility
p2641
aVblasts
p2642
aVManipur
p2643
aVPolice
p2644
aVintelligence
p2645
aVofficials
p2646
aVsaid
p2647
aVblasts
p2648
aVcarried
p2649
aVrebels
p2650
aVyouth
p2651
aVkilled
p2652
aVvillage
p2653
aVManipurs
p2654
aVThoubal
p2655
aVdistrict
p2656
aVbomb
p2657
aVsuspected
p2658
aVplanted
p2659
aVmilitants
p2660
aVwent
p2661
aVhouse
p2662
aV20
p2663
aVrebel
p2664
aVoutfits
p2665
aVManipur
p2666
aVdemands
p2667
aVranging
p2668
aVsecession
p2669
aVgreater
p2670
aVautonomy.IANSBlast
p2671
aVtwo
p2672
aVtroopers
p2673
aVinjured
p2674
asg114
(lp2675
sg116
(lp2676
VWednesday
p2677
aVMonday
p2678
asg120
(lp2679
sg122
(lp2680
g2570
ag2571
ag2572
aVwere
p2681
ag2573
aVin
p2682
aVa
p2683
ag2574
ag2575
ag2576
aVby
p2684
ag2577
ag2578
aVin
p2685
aVthe
p2686
ag2579
ag2580
aV,
p2687
ag2581
ag2582
aV.
p2688
aV.
p2689
aV.
p2690
aVA
p2691
ag2583
ag2584
aVhas
p2692
aVbeen
p2693
ag2585
aV.
p2694
aV.
p2695
aV.
p2696
aVThe
p2697
ag2586
ag2587
ag2588
ag2589
aVwere
p2698
aVon
p2699
ag2590
ag2591
aVwhen
p2700
aVthe
p2701
ag2592
ag2593
aVthem
p2702
aVin
p2703
aVthe
p2704
ag2594
ag2595
aV,
p2705
aVa
p2706
aVfew
p2707
ag2596
aVfrom
p2708
aVthe
p2709
ag2597
ag2598
ag2599
aV.
p2710
aV.
p2711
aV.
p2712
aVTheir
p2713
ag2600
aVis
p2714
ag2601
aVto
p2715
aVbe
p2716
ag2602
aV,
p2717
aVan
p2718
ag2603
ag2604
ag2605
ag2606
aV.
p2719
aV.
p2720
aV.
p2721
aVA
p2722
ag2607
ag2608
aVhas
p2723
aVbeen
p2724
ag2609
aVand
p2725
ag2610
aVhas
p2726
aVbeen
p2727
ag2611
aVoff
p2728
aV,
p2729
ag2612
ag2613
ag2614
ag2615
ag2616
aV.
p2730
aV.
p2731
aV.
p2732
aVHe
p2733
ag2617
ag2618
ag2619
ag2620
aVthat
p2734
aVthe
p2735
ag2621
ag2622
aVhave
p2736
aVbeen
p2737
ag2623
aVby
p2738
aVan
p2739
ag2624
ag2625
ag2626
aV.
p2740
aV.
p2741
aV.
p2742
aVWe
p2743
aVhave
p2744
ag2627
aVthe
p2745
ag2628
aVof
p2746
aVa
p2747
ag2629
aVfrom
p2748
aVthe
p2749
ag2630
ag2631
aV,
p2750
aVhe
p2751
ag2632
aV.
p2752
aV.
p2753
aV.
p2754
aVNo
p2755
ag2633
aVhad
p2756
aVbeen
p2757
ag2634
aVso
p2758
ag2635
aV,
p2759
aVhe
p2760
ag2636
aV.
p2761
aV.
p2762
aV.
p2763
ag2637
aVno
p2764
ag2638
ag2639
aVhas
p2765
ag2640
ag2641
aVfor
p2766
aVthe
p2767
ag2642
aV,
p2768
ag2643
ag2644
aVand
p2769
ag2645
ag2646
ag2647
aVthe
p2770
ag2648
aVwere
p2771
ag2649
aVout
p2772
aVby
p2773
ag2650
aV.
p2774
aV.
p2775
aV.
p2776
aVOn
p2777
aV,
p2778
aVa
p2779
ag2651
aVwas
p2780
ag2652
aVin
p2781
aVa
p2782
ag2653
aVof
p2783
ag2654
ag2655
ag2656
aVafter
p2784
aVa
p2785
ag2657
aV,
p2786
ag2658
aVto
p2787
aVhave
p2788
aVbeen
p2789
ag2659
aVby
p2790
ag2660
aV,
p2791
ag2661
aVoff
p2792
aVat
p2793
aVhis
p2794
ag2662
aV.
p2795
aV.
p2796
aV.
p2797
aVThere
p2798
aVare
p2799
aVmore
p2800
aVthan
p2801
ag2663
ag2664
ag2665
aVin
p2802
ag2666
aVwith
p2803
ag2667
ag2668
aVfrom
p2804
ag2669
aVto
p2805
ag2670
ag2671
aVin
p2806
aV,
p2807
ag2672
ag2673
ag2674
aV.
p2808
asg236
(lp2809
g2570
ag2571
ag2572
ag2573
ag2574
ag2575
ag2576
ag2577
ag2578
ag2579
ag2580
ag2581
ag2582
ag2583
ag2584
ag2585
ag2586
ag2587
ag2588
ag2589
ag2590
ag2591
ag2592
ag2593
ag2594
ag2595
ag2596
ag2597
ag2598
ag2599
ag2600
ag2601
ag2602
ag2603
ag2604
ag2605
ag2606
ag2607
ag2608
ag2609
ag2610
ag2611
ag2612
ag2613
ag2614
ag2615
ag2616
ag2617
ag2618
ag2619
ag2620
ag2621
ag2622
ag2623
ag2624
ag2625
ag2626
ag2627
ag2628
ag2629
ag2630
ag2631
ag2632
ag2633
ag2634
ag2635
ag2636
ag2637
ag2638
ag2639
ag2640
ag2641
ag2642
ag2643
ag2644
ag2645
ag2646
ag2647
ag2648
ag2649
ag2650
ag2651
ag2652
ag2653
ag2654
ag2655
ag2656
ag2657
ag2658
ag2659
ag2660
ag2661
ag2662
ag2663
ag2664
ag2665
ag2666
ag2667
ag2668
ag2669
ag2670
ag2671
ag2672
ag2673
ag2674
asssS'ev_014_st_003.html'
p2810
(dp2811
g240
S'Congress, Left condemn Assam blast'
p2812
sg242
S"National                 Congress, Left condemn Assam blast .\n\n. By Our Special Correspondent .\n\n. NEW DELHI,                                                                                                                        AUG.16.                                                             The Congress and the Left Parties today expressed deep shock over the killing of 13 persons, mostly schoolchildren, at an Independence Day parade by militants at Dhemaji in Assam. The Congress said the incident was a powerful reminder of the continuing threat of terrorism in the sensitive border States. No words were adequate to condemn this 'dastardly act.' .\n\n. 'It calls for continued vigil on the part of the intelligence agencies, police and administration to prevent recurrence of such incidents,'' the party spokesperson, Anand Sharma, said adding that in some regions, some foreign countries were providing covert assistance to terror. .\n\n. The Polit Bureau of the Communist Party of India (Marxist) said the 'horrific crime' came in the background of a call for boycott by the United Liberation Front of Assam (ULFA) of the Independence Day celebrations. In a statement, the Polit Bureau conveyed its heartfelt condolences to the families of those killed. .\n\n. It said the State Government should spare no effort to hunt down the culprits 'responsible for this heinous crime' and also urgently enquire into how the blast in Dhemaji and other places took place when heightened security arrangements were in place. The party said that all the democratic political forces in Assam must unitedly mobilise the people to isolate the extremists and disruptive elements 'who have no compunctions in targeting innocent children and people.'' .\n\n. The Communist Party of India said 'the dastardly crime' was committed through a bomb blast by remote control in a 'terrible atmosphere' created by the boycott call by the ULFA. While expressing its condolences to the families of those killed, the party urged the State Government to track down the culprits and take punitive action"
p2813
sg244
S'http://www.thehindu.com/2004/08/17/stories/2004081705501100.htm'
p2814
sg246
S'National                 Congress'
p2815
sg248
F0.2573632538569425
sg12
(dp2816
g14
(lp2817
VNEW DELHI
p2818
aVDhemaji
p2819
aVAssam
p2820
aVDhemaji
p2821
aVAssam
p2822
aVAssam
p2823
asg20
(lp2824
VAnand Sharma
p2825
asg23
(lp2826
VNational
p2827
aVLeft
p2828
aVcondemn
p2829
aVAssam
p2830
aVblast
p2831
aVSpecial
p2832
aVCorrespondent
p2833
aVAUG.
p2834
aV16
p2835
aVLeft
p2836
aVParties
p2837
aVtoday
p2838
aVexpressed
p2839
aVdeep
p2840
aVshock
p2841
aVkilling
p2842
aV13
p2843
aVpersons
p2844
aVmostly
p2845
aVschoolchildren
p2846
aVIndependence
p2847
aVDay
p2848
aVparade
p2849
aVmilitants
p2850
aVsaid
p2851
aVincident
p2852
aVpowerful
p2853
aVreminder
p2854
aVcontinuing
p2855
aVthreat
p2856
aVterrorism
p2857
aVsensitive
p2858
aVborder
p2859
aVStates
p2860
aVwords
p2861
aVadequate
p2862
aVcondemn
p2863
aVdastardly
p2864
aVact
p2865
aVcalls
p2866
aVcontinued
p2867
aVvigil
p2868
aVpart
p2869
aVintelligence
p2870
aVagencies
p2871
aVpolice
p2872
aVadministration
p2873
aVprevent
p2874
aVrecurrence
p2875
aVincidents
p2876
aVparty
p2877
aVspokesperson
p2878
aVsaid
p2879
aVadding
p2880
aVregions
p2881
aVforeign
p2882
aVcountries
p2883
aVproviding
p2884
aVcovert
p2885
aVassistance
p2886
aVterror
p2887
aVPolit
p2888
aVBureau
p2889
aVMarxist
p2890
aVsaid
p2891
aVhorrific
p2892
aVcrime
p2893
aVcame
p2894
aVbackground
p2895
aVcall
p2896
aVboycott
p2897
aVIndependence
p2898
aVDay
p2899
aVcelebrations
p2900
aVstatement
p2901
aVPolit
p2902
aVBureau
p2903
aVconveyed
p2904
aVheartfelt
p2905
aVcondolences
p2906
aVfamilies
p2907
aVkilled
p2908
aVsaid
p2909
aVspare
p2910
aVeffort
p2911
aVhunt
p2912
aVculprits
p2913
aVresponsible
p2914
aVheinous
p2915
aVcrime
p2916
aValso
p2917
aVurgently
p2918
aVenquire
p2919
aVblast
p2920
aVplaces
p2921
aVtook
p2922
aVplace
p2923
aVheightened
p2924
aVsecurity
p2925
aVarrangements
p2926
aVplace
p2927
aVparty
p2928
aVsaid
p2929
aVdemocratic
p2930
aVpolitical
p2931
aVforces
p2932
aVmust
p2933
aVunitedly
p2934
aVmobilise
p2935
aVpeople
p2936
aVisolate
p2937
aVextremists
p2938
aVdisruptive
p2939
aVelements
p2940
aVcompunctions
p2941
aVtargeting
p2942
aVinnocent
p2943
aVchildren
p2944
aVpeople
p2945
aVsaid
p2946
aVdastardly
p2947
aVcrime
p2948
aVcommitted
p2949
aVbomb
p2950
aVblast
p2951
aVremote
p2952
aVcontrol
p2953
aVterrible
p2954
aVatmosphere
p2955
aVcreated
p2956
aVboycott
p2957
aVcall
p2958
aVULFA
p2959
aVexpressing
p2960
aVcondolences
p2961
aVfamilies
p2962
aVkilled
p2963
aVparty
p2964
aVurged
p2965
aVtrack
p2966
aVculprits
p2967
aVtake
p2968
aVpunitive
p2969
aVactionCongress
p2970
aVLeft
p2971
aVcondemn
p2972
aVblast
p2973
asg114
(lp2974
sg116
(lp2975
sg120
(lp2976
VCongress
p2977
aVCongress
p2978
aVCongress
p2979
aVCommunist Party of India
p2980
aVUnited Liberation Front of Assam
p2981
aVULFA
p2982
aVState Government
p2983
aVCommunist Party of India
p2984
aVState Government
p2985
asg122
(lp2986
g2827
aV,
p2987
ag2828
ag2829
ag2830
ag2831
aV.
p2988
aV.
p2989
aVBy
p2990
aVOur
p2991
ag2832
ag2833
aV.
p2992
aV.
p2993
aV,
p2994
ag2834
ag2835
aV.
p2995
aVThe
p2996
aVand
p2997
aVthe
p2998
ag2836
ag2837
ag2838
ag2839
ag2840
ag2841
aVover
p2999
aVthe
p3000
ag2842
aVof
p3001
ag2843
ag2844
aV,
p3002
ag2845
ag2846
aV,
p3003
aVat
p3004
aVan
p3005
ag2847
ag2848
ag2849
aVby
p3006
ag2850
aVat
p3007
aVin
p3008
aV.
p3009
aVThe
p3010
ag2851
aVthe
p3011
ag2852
aVwas
p3012
aVa
p3013
ag2853
ag2854
aVof
p3014
aVthe
p3015
ag2855
ag2856
aVof
p3016
ag2857
aVin
p3017
aVthe
p3018
ag2858
ag2859
ag2860
aV.
p3019
aVNo
p3020
ag2861
aVwere
p3021
ag2862
aVto
p3022
ag2863
aVthis
p3023
aV`
p3024
ag2864
ag2865
aV.
p3025
aV'
p3026
aV.
p3027
aV.
p3028
aV`
p3029
aVIt
p3030
ag2866
aVfor
p3031
ag2867
ag2868
aVon
p3032
aVthe
p3033
ag2869
aVof
p3034
aVthe
p3035
ag2870
ag2871
aV,
p3036
ag2872
aVand
p3037
ag2873
aVto
p3038
ag2874
ag2875
aVof
p3039
aVsuch
p3040
ag2876
aV,
p3041
aV''
p3042
aVthe
p3043
ag2877
ag2878
aV,
p3044
aV,
p3045
ag2879
ag2880
aVthat
p3046
aVin
p3047
aVsome
p3048
ag2881
aV,
p3049
aVsome
p3050
ag2882
ag2883
aVwere
p3051
ag2884
ag2885
ag2886
aVto
p3052
ag2887
aV.
p3053
aV.
p3054
aV.
p3055
aVThe
p3056
ag2888
ag2889
aVof
p3057
aVthe
p3058
aV-LRB-
p3059
ag2890
aV-RRB-
p3060
ag2891
aVthe
p3061
aV`
p3062
ag2892
ag2893
aV'
p3063
ag2894
aVin
p3064
aVthe
p3065
ag2895
aVof
p3066
aVa
p3067
ag2896
aVfor
p3068
ag2897
aVby
p3069
aVthe
p3070
aV-LRB-
p3071
aV-RRB-
p3072
aVof
p3073
aVthe
p3074
ag2898
ag2899
ag2900
aV.
p3075
aVIn
p3076
aVa
p3077
ag2901
aV,
p3078
aVthe
p3079
ag2902
ag2903
ag2904
aVits
p3080
ag2905
ag2906
aVto
p3081
aVthe
p3082
ag2907
aVof
p3083
aVthose
p3084
ag2908
aV.
p3085
aV.
p3086
aV.
p3087
aVIt
p3088
ag2909
aVthe
p3089
aVshould
p3090
ag2910
aVno
p3091
ag2911
aVto
p3092
ag2912
aVdown
p3093
aVthe
p3094
ag2913
aV`
p3095
ag2914
aVfor
p3096
aVthis
p3097
ag2915
ag2916
aV'
p3098
aVand
p3099
ag2917
ag2918
ag2919
aVinto
p3100
aVhow
p3101
aVthe
p3102
ag2920
aVin
p3103
aVand
p3104
aVother
p3105
ag2921
ag2922
ag2923
aVwhen
p3106
ag2924
ag2925
ag2926
aVwere
p3107
aVin
p3108
ag2927
aV.
p3109
aVThe
p3110
ag2928
ag2929
aVthat
p3111
aVall
p3112
aVthe
p3113
ag2930
ag2931
ag2932
aVin
p3114
ag2933
ag2934
ag2935
aVthe
p3115
ag2936
aVto
p3116
ag2937
aVthe
p3117
ag2938
aVand
p3118
ag2939
ag2940
aV`
p3119
aVwho
p3120
aVhave
p3121
aVno
p3122
ag2941
aVin
p3123
ag2942
ag2943
ag2944
aVand
p3124
ag2945
aV.
p3125
aV''
p3126
aV.
p3127
aV.
p3128
aVThe
p3129
ag2946
aV`
p3130
aVthe
p3131
ag2947
ag2948
aV'
p3132
aVwas
p3133
ag2949
aVthrough
p3134
aVa
p3135
ag2950
ag2951
aVby
p3136
ag2952
ag2953
aVin
p3137
aVa
p3138
aV`
p3139
ag2954
ag2955
aV'
p3140
ag2956
aVby
p3141
aVthe
p3142
ag2957
ag2958
aVby
p3143
aVthe
p3144
ag2959
aV.
p3145
aVWhile
p3146
ag2960
aVits
p3147
ag2961
aVto
p3148
aVthe
p3149
ag2962
aVof
p3150
aVthose
p3151
ag2963
aV,
p3152
aVthe
p3153
ag2964
ag2965
aVthe
p3154
aVto
p3155
ag2966
aVdown
p3156
aVthe
p3157
ag2967
aVand
p3158
ag2968
ag2969
ag2970
aV,
p3159
ag2971
ag2972
ag2973
aV.
p3160
asg236
(lp3161
g2827
ag2828
ag2829
ag2830
ag2831
ag2832
ag2833
ag2834
ag2835
ag2836
ag2837
ag2838
ag2839
ag2840
ag2841
ag2842
ag2843
ag2844
ag2845
ag2846
ag2847
ag2848
ag2849
ag2850
ag2851
ag2852
ag2853
ag2854
ag2855
ag2856
ag2857
ag2858
ag2859
ag2860
ag2861
ag2862
ag2863
ag2864
ag2865
ag2866
ag2867
ag2868
ag2869
ag2870
ag2871
ag2872
ag2873
ag2874
ag2875
ag2876
ag2877
ag2878
ag2879
ag2880
ag2881
ag2882
ag2883
ag2884
ag2885
ag2886
ag2887
ag2888
ag2889
ag2890
ag2891
ag2892
ag2893
ag2894
ag2895
ag2896
ag2897
ag2898
ag2899
ag2900
ag2901
ag2902
ag2903
ag2904
ag2905
ag2906
ag2907
ag2908
ag2909
ag2910
ag2911
ag2912
ag2913
ag2914
ag2915
ag2916
ag2917
ag2918
ag2919
ag2920
ag2921
ag2922
ag2923
ag2924
ag2925
ag2926
ag2927
ag2928
ag2929
ag2930
ag2931
ag2932
ag2933
ag2934
ag2935
ag2936
ag2937
ag2938
ag2939
ag2940
ag2941
ag2942
ag2943
ag2944
ag2945
ag2946
ag2947
ag2948
ag2949
ag2950
ag2951
ag2952
ag2953
ag2954
ag2955
ag2956
ag2957
ag2958
ag2959
ag2960
ag2961
ag2962
ag2963
ag2964
ag2965
ag2966
ag2967
ag2968
ag2969
ag2970
ag2971
ag2972
ag2973
asssS'ev_001_st_006.html'
p3162
(dp3163
S'TITLE'
p3164
S'Nine injured in Assam blast'
p3165
sS'CONTENT'
p3166
S"[RxPG] Guwahati, May 21 - At least nine people were wounded, one critically, in a powerful explosion at a crowded marketplace Monday in Bongaigaon town of Assam.A police spokesman said the bomb was concealed in a sack strapped to a bicycle near a busy commercial area in Bongaigaon, about 210 km west of Assam's main city of Guwahati.'The area where the explosion took place was crowded. Most of the injured are either morning shoppers or vendors,' police official S. Rai told IANS by telephone.The victims were shifted to a local hospital with multiple injuries.Police blamed the outlawed United Liberation Front of Asom -, a rebel group fighting for an independent Assamese homeland since 1979, for the blast. Assam has been rocked by a string of explosions in the past two weeks. Two people were killed in an explosion in Guwahati last week.In the past two months, the ULFA staged at least 24 bomb explosions in Assam and launched a fresh attack on Hindi-speaking migrant workers, killing 10 of them in separate raids during the past 10 days. The ULFA was also blamed for a string of attacks in January in which 80 people were killed, 61 of them Hindi-speaking migrant workers.The central government launched a massive military offensive against the ULFA after the strikes killing 55 rebels and arresting 553 more cadres since January. More than 10,000 people have lost their lives to insurgency in Assam during the past two decades."
p3167
sS'LINK'
p3168
S'http://www.rxpgnews.com/india/Nine-injured-in-Assam-blast_33364.shtml'
p3169
sS'LOCATION'
p3170
VGuwahati,
p3171
sS'TIME'
p3172
F0.43390603085553997
sg12
(dp3173
g14
(lp3174
VGuwahati
p3175
aVBongaigaon
p3176
aVAssam
p3177
aVGuwahati
p3178
aVAssam
p3179
aVGuwahati
p3180
aVAssam
p3181
aVAssam
p3182
aVAssam
p3183
asg20
(lp3184
VS. Rai
p3185
asg23
(lp3186
VRxPG
p3187
aVleast
p3188
aVnine
p3189
aVpeople
p3190
aVwounded
p3191
aVone
p3192
aVcritically
p3193
aVpowerful
p3194
aVexplosion
p3195
aVcrowded
p3196
aVmarketplace
p3197
aVtown
p3198
aVAssam.A
p3199
aVpolice
p3200
aVspokesman
p3201
aVsaid
p3202
aVbomb
p3203
aVconcealed
p3204
aVsack
p3205
aVstrapped
p3206
aVbicycle
p3207
aVnear
p3208
aVbusy
p3209
aVcommercial
p3210
aVarea
p3211
aVBongaigaon
p3212
aV210
p3213
aVkm
p3214
aVwest
p3215
aV's
p3216
aVmain
p3217
aVcity
p3218
aVarea
p3219
aVexplosion
p3220
aVtook
p3221
aVplace
p3222
aVcrowded
p3223
aVinjured
p3224
aVeither
p3225
aVmorning
p3226
aVshoppers
p3227
aVvendors
p3228
aVpolice
p3229
aVofficial
p3230
aVtold
p3231
aVIANS
p3232
aVtelephone.The
p3233
aVvictims
p3234
aVshifted
p3235
aVlocal
p3236
aVhospital
p3237
aVmultiple
p3238
aVinjuries.Police
p3239
aVblamed
p3240
aVoutlawed
p3241
aVUnited
p3242
aVLiberation
p3243
aVFront
p3244
aVAsom
p3245
aVrebel
p3246
aVgroup
p3247
aVfighting
p3248
aVindependent
p3249
aVAssamese
p3250
aVhomeland
p3251
aVsince
p3252
aVblast
p3253
aVrocked
p3254
aVstring
p3255
aVexplosions
p3256
aVpast
p3257
aVtwo
p3258
aVweeks
p3259
aVTwo
p3260
aVpeople
p3261
aVkilled
p3262
aVexplosion
p3263
aVlast
p3264
aVweek.In
p3265
aVpast
p3266
aVtwo
p3267
aVmonths
p3268
aVULFA
p3269
aVstaged
p3270
aVleast
p3271
aV24
p3272
aVbomb
p3273
aVexplosions
p3274
aVlaunched
p3275
aVfresh
p3276
aVattack
p3277
aVHindi-speaking
p3278
aVmigrant
p3279
aVworkers
p3280
aVkilling
p3281
aV10
p3282
aVseparate
p3283
aVraids
p3284
aVpast
p3285
aV10
p3286
aVdays
p3287
aVULFA
p3288
aValso
p3289
aVblamed
p3290
aVstring
p3291
aVattacks
p3292
aV80
p3293
aVpeople
p3294
aVkilled
p3295
aV61
p3296
aVHindi-speaking
p3297
aVmigrant
p3298
aVworkers.The
p3299
aVcentral
p3300
aVgovernment
p3301
aVlaunched
p3302
aVmassive
p3303
aVmilitary
p3304
aVoffensive
p3305
aVULFA
p3306
aVstrikes
p3307
aVkilling
p3308
aV55
p3309
aVrebels
p3310
aVarresting
p3311
aV553
p3312
aVcadres
p3313
aVsince
p3314
aV10,000
p3315
aVpeople
p3316
aVlost
p3317
aVlives
p3318
aVinsurgency
p3319
aVpast
p3320
aVtwo
p3321
aVdecades.Nine
p3322
aVinjured
p3323
aVblast
p3324
asg114
(lp3325
sg116
(lp3326
VMay 21
p3327
aVMonday
p3328
aV1979
p3329
aVJanuary
p3330
aVJanuary
p3331
asg120
(lp3332
sg122
(lp3333
V-LSB-
p3334
ag3187
aV-RSB-
p3335
aV,
p3336
aV-
p3337
aVAt
p3338
ag3188
ag3189
ag3190
aVwere
p3339
ag3191
aV,
p3340
ag3192
ag3193
aV,
p3341
aVin
p3342
aVa
p3343
ag3194
ag3195
aVat
p3344
aVa
p3345
ag3196
ag3197
aVin
p3346
ag3198
aVof
p3347
ag3199
ag3200
ag3201
ag3202
aVthe
p3348
ag3203
aVwas
p3349
ag3204
aVin
p3350
aVa
p3351
ag3205
ag3206
aVto
p3352
aVa
p3353
ag3207
ag3208
aVa
p3354
ag3209
ag3210
ag3211
aVin
p3355
ag3212
aV,
p3356
aVabout
p3357
ag3213
ag3214
ag3215
aVof
p3358
ag3216
ag3217
ag3218
aVof
p3359
aV.
p3360
aV`
p3361
aVThe
p3362
ag3219
aVwhere
p3363
aVthe
p3364
ag3220
ag3221
ag3222
aVwas
p3365
ag3223
aV.
p3366
aVMost
p3367
aVof
p3368
aVthe
p3369
ag3224
aVare
p3370
ag3225
ag3226
ag3227
aVor
p3371
ag3228
aV,
p3372
aV'
p3373
ag3229
ag3230
ag3231
ag3232
aVby
p3374
ag3233
ag3234
aVwere
p3375
ag3235
aVto
p3376
aVa
p3377
ag3236
ag3237
aVwith
p3378
ag3238
ag3239
ag3240
aVthe
p3379
ag3241
ag3242
ag3243
ag3244
aVof
p3380
ag3245
aV-
p3381
aV,
p3382
aVa
p3383
ag3246
ag3247
ag3248
aVfor
p3384
aVan
p3385
ag3249
ag3250
ag3251
ag3252
aV,
p3386
aVfor
p3387
aVthe
p3388
ag3253
aV.
p3389
aVhas
p3390
aVbeen
p3391
ag3254
aVby
p3392
aVa
p3393
ag3255
aVof
p3394
ag3256
aVin
p3395
aVthe
p3396
ag3257
ag3258
ag3259
aV.
p3397
ag3260
ag3261
aVwere
p3398
ag3262
aVin
p3399
aVan
p3400
ag3263
aVin
p3401
ag3264
ag3265
aVthe
p3402
ag3266
ag3267
ag3268
aV,
p3403
aVthe
p3404
ag3269
ag3270
aVat
p3405
ag3271
ag3272
ag3273
ag3274
aVin
p3406
aVand
p3407
ag3275
aVa
p3408
ag3276
ag3277
aVon
p3409
ag3278
ag3279
ag3280
aV,
p3410
ag3281
ag3282
aVof
p3411
aVthem
p3412
aVin
p3413
ag3283
ag3284
aVduring
p3414
aVthe
p3415
ag3285
ag3286
ag3287
aV.
p3416
aVThe
p3417
ag3288
aVwas
p3418
ag3289
ag3290
aVfor
p3419
aVa
p3420
ag3291
aVof
p3421
ag3292
aVin
p3422
aVin
p3423
aVwhich
p3424
ag3293
ag3294
aVwere
p3425
ag3295
aV,
p3426
ag3296
aVof
p3427
aVthem
p3428
ag3297
ag3298
ag3299
ag3300
ag3301
ag3302
aVa
p3429
ag3303
ag3304
ag3305
aVagainst
p3430
aVthe
p3431
ag3306
aVafter
p3432
aVthe
p3433
ag3307
ag3308
ag3309
ag3310
aVand
p3434
ag3311
ag3312
aVmore
p3435
ag3313
ag3314
aV.
p3436
aVMore
p3437
aVthan
p3438
ag3315
ag3316
aVhave
p3439
ag3317
aVtheir
p3440
ag3318
aVto
p3441
ag3319
aVin
p3442
aVduring
p3443
aVthe
p3444
ag3320
ag3321
ag3322
ag3323
aVin
p3445
ag3324
aV.
p3446
asg236
(lp3447
g3187
ag3188
ag3189
ag3190
ag3191
ag3192
ag3193
ag3194
ag3195
ag3196
ag3197
ag3198
ag3199
ag3200
ag3201
ag3202
ag3203
ag3204
ag3205
ag3206
ag3207
ag3208
ag3209
ag3210
ag3211
ag3212
ag3213
ag3214
ag3215
ag3216
ag3217
ag3218
ag3219
ag3220
ag3221
ag3222
ag3223
ag3224
ag3225
ag3226
ag3227
ag3228
ag3229
ag3230
ag3231
ag3232
ag3233
ag3234
ag3235
ag3236
ag3237
ag3238
ag3239
ag3240
ag3241
ag3242
ag3243
ag3244
ag3245
ag3246
ag3247
ag3248
ag3249
ag3250
ag3251
ag3252
ag3253
ag3254
ag3255
ag3256
ag3257
ag3258
ag3259
ag3260
ag3261
ag3262
ag3263
ag3264
ag3265
ag3266
ag3267
ag3268
ag3269
ag3270
ag3271
ag3272
ag3273
ag3274
ag3275
ag3276
ag3277
ag3278
ag3279
ag3280
ag3281
ag3282
ag3283
ag3284
ag3285
ag3286
ag3287
ag3288
ag3289
ag3290
ag3291
ag3292
ag3293
ag3294
ag3295
ag3296
ag3297
ag3298
ag3299
ag3300
ag3301
ag3302
ag3303
ag3304
ag3305
ag3306
ag3307
ag3308
ag3309
ag3310
ag3311
ag3312
ag3313
ag3314
ag3315
ag3316
ag3317
ag3318
ag3319
ag3320
ag3321
ag3322
ag3323
ag3324
asssS'ev_001_st_004.html'
p3448
(dp3449
g491
S'13 injured in bomb blast in Guwahati'
p3450
sg493
S"GUWAHATI: Thirteen persons were injured, three of them seriously, in a powerful bomb explosion by ULFA in Lower Assam's Bongaigaon district on Monday morning, police said. .\n\n. The Programmable Time Device (PTD) was kept concealed inside a bicycle in Bongaigaon town's Paglathan Bazar. .\n\n. The bomb went off at 9.30 am when the area near rail gate was busy with shoppers creating chaos. People ran in panic and shop keepers downed their shutters. .\n\n. The area has been cordened off, police said, adding the injured had been admitted to hospital where the condition of three was stated to be serious. .\n\n. On Friday, the ULFA triggered a powerful blast at Fancy Bazar in Guwahati, targetting Hindi-speaking businessmen and injuring five persons. .\n\n. A terror attack was averted on Sunday with the recovery of a bomb containing one kilogram of RDX near the main fish market of Assam's Jorhat district"
p3451
sg495
S'http://www.dnaindia.com/india/report-13-injured-in-bomb-blast-in-guwahati-1098184'
p3452
sg497
VGUWAHATI
p3453
sg499
F0.43390603085553997
sg12
(dp3454
g14
(lp3455
VGUWAHATI
p3456
aVAssam
p3457
aVBongaigaon
p3458
aVBongaigaon
p3459
aVPaglathan Bazar
p3460
aVGuwahati
p3461
aVAssam
p3462
aVGuwahati
p3463
asg20
(lp3464
sg23
(lp3465
VThirteen
p3466
aVpersons
p3467
aVinjured
p3468
aVthree
p3469
aVseriously
p3470
aVpowerful
p3471
aVbomb
p3472
aVexplosion
p3473
aVLower
p3474
aV's
p3475
aVdistrict
p3476
aVmorning
p3477
aVpolice
p3478
aVsaid
p3479
aVProgrammable
p3480
aVTime
p3481
aVDevice
p3482
aVPTD
p3483
aVkept
p3484
aVconcealed
p3485
aVinside
p3486
aVbicycle
p3487
aVtown
p3488
aV's
p3489
aVbomb
p3490
aVwent
p3491
aV9.30
p3492
aVarea
p3493
aVnear
p3494
aVrail
p3495
aVgate
p3496
aVbusy
p3497
aVshoppers
p3498
aVcreating
p3499
aVchaos
p3500
aVPeople
p3501
aVran
p3502
aVpanic
p3503
aVshop
p3504
aVkeepers
p3505
aVdowned
p3506
aVshutters
p3507
aVarea
p3508
aVcordened
p3509
aVpolice
p3510
aVsaid
p3511
aVadding
p3512
aVinjured
p3513
aVadmitted
p3514
aVhospital
p3515
aVcondition
p3516
aVthree
p3517
aVstated
p3518
aVserious
p3519
aVULFA
p3520
aVtriggered
p3521
aVpowerful
p3522
aVblast
p3523
aVFancy
p3524
aVBazar
p3525
aVtargetting
p3526
aVHindi-speaking
p3527
aVbusinessmen
p3528
aVinjuring
p3529
aVfive
p3530
aVpersons
p3531
aVterror
p3532
aVattack
p3533
aVaverted
p3534
aVrecovery
p3535
aVbomb
p3536
aVcontaining
p3537
aVone
p3538
aVkilogram
p3539
aVRDX
p3540
aVnear
p3541
aVmain
p3542
aVfish
p3543
aVmarket
p3544
aV's
p3545
aVJorhat
p3546
aVdistrict13
p3547
aVinjured
p3548
aVbomb
p3549
aVblast
p3550
asg114
(lp3551
sg116
(lp3552
VMonday
p3553
aVFriday
p3554
aVSunday
p3555
asg120
(lp3556
VULFA
p3557
asg122
(lp3558
g850
ag3466
ag3467
aVwere
p3559
ag3468
aV,
p3560
ag3469
aVof
p3561
aVthem
p3562
ag3470
aV,
p3563
aVin
p3564
aVa
p3565
ag3471
ag3472
ag3473
aVby
p3566
aVin
p3567
ag3474
ag3475
ag3476
aVon
p3568
ag3477
aV,
p3569
ag3478
ag3479
aV.
p3570
aV.
p3571
aV.
p3572
aVThe
p3573
ag3480
ag3481
ag3482
aV-LRB-
p3574
ag3483
aV-RRB-
p3575
aVwas
p3576
ag3484
ag3485
ag3486
aVa
p3577
ag3487
aVin
p3578
ag3488
ag3489
aV.
p3579
aV.
p3580
aV.
p3581
aVThe
p3582
ag3490
ag3491
aVoff
p3583
aVat
p3584
ag3492
aVam
p3585
aVwhen
p3586
aVthe
p3587
ag3493
ag3494
ag3495
ag3496
aVwas
p3588
ag3497
aVwith
p3589
ag3498
ag3499
ag3500
aV.
p3590
ag3501
ag3502
aVin
p3591
ag3503
aVand
p3592
ag3504
ag3505
ag3506
aVtheir
p3593
ag3507
aV.
p3594
aV.
p3595
aV.
p3596
aVThe
p3597
ag3508
aVhas
p3598
aVbeen
p3599
ag3509
aVoff
p3600
aV,
p3601
ag3510
ag3511
aV,
p3602
ag3512
aVthe
p3603
ag3513
aVhad
p3604
aVbeen
p3605
ag3514
aVto
p3606
ag3515
aVwhere
p3607
aVthe
p3608
ag3516
aVof
p3609
ag3517
aVwas
p3610
ag3518
aVto
p3611
aVbe
p3612
ag3519
aV.
p3613
aV.
p3614
aV.
p3615
aVOn
p3616
aV,
p3617
aVthe
p3618
ag3520
ag3521
aVa
p3619
ag3522
ag3523
aVat
p3620
ag3524
ag3525
aVin
p3621
aV,
p3622
ag3526
ag3527
ag3528
aVand
p3623
ag3529
ag3530
ag3531
aV.
p3624
aV.
p3625
aV.
p3626
aVA
p3627
ag3532
ag3533
aVwas
p3628
ag3534
aVon
p3629
aVwith
p3630
aVthe
p3631
ag3535
aVof
p3632
aVa
p3633
ag3536
ag3537
ag3538
ag3539
aVof
p3634
ag3540
ag3541
aVthe
p3635
ag3542
ag3543
ag3544
aVof
p3636
ag3545
ag3546
ag3547
ag3548
aVin
p3637
ag3549
ag3550
aVin
p3638
aV.
p3639
asg236
(lp3640
g3466
ag3467
ag3468
ag3469
ag3470
ag3471
ag3472
ag3473
ag3474
ag3475
ag3476
ag3477
ag3478
ag3479
ag3480
ag3481
ag3482
ag3483
ag3484
ag3485
ag3486
ag3487
ag3488
ag3489
ag3490
ag3491
ag3492
ag3493
ag3494
ag3495
ag3496
ag3497
ag3498
ag3499
ag3500
ag3501
ag3502
ag3503
ag3504
ag3505
ag3506
ag3507
ag3508
ag3509
ag3510
ag3511
ag3512
ag3513
ag3514
ag3515
ag3516
ag3517
ag3518
ag3519
ag3520
ag3521
ag3522
ag3523
ag3524
ag3525
ag3526
ag3527
ag3528
ag3529
ag3530
ag3531
ag3532
ag3533
ag3534
ag3535
ag3536
ag3537
ag3538
ag3539
ag3540
ag3541
ag3542
ag3543
ag3544
ag3545
ag3546
ag3547
ag3548
ag3549
ag3550
asssS'ev_014_st_007.html'
p3641
(dp3642
S'TITLE'
p3643
S'Regarding Incident Of Bomb Blast At Dhemaji District, Assam. on 17 August, 2004'
p3644
sS'CONTENT'
p3645
S'THE MINISTER OF STATE IN THE MINISTRY OF HOME AFFAIRS (SHRI SHRIPRAKASH JAISWAL): Sir, on behalf of Shri Shivraj Patil, I make this statement. .\n\n. A powerful bomb explosion took place at 0850 hrs. on 15th August, 2004 at the venue of the Independence Day function in the Dhemaji college ground, resulting in the death of 13 persons (seven male and six female including five school children) and injuries to a few others. All the victims were spectators who had come to participate in the function. Critically injured persons have been shifted to the Assam Medical College, Dibrugarh. Preliminary investigations have revealed that the explosion was caused by an I.E.D planted 40/50 meters from the rostrum near the public enclosure. The explosion appears to be the handiwork of ULFA cadres. The Flag was hoisted by the Deputy Commissioner at 0915 hrs. at the same venue. .\n\n. There were two other incidents in Assam on Independence Day. In one incident an I.E.D explosion took place in the Dhakuakhana, Normal School field, Dhakuakhana sub vision of North Lakhimpur district at 0755 hrs. In this incident an I.E.D was buried just beneath the flag post. No casualty has been reported. The explosion was caused by timed device planted well in advance and ULFA cadres are suspected to be behind the act. .\n\n. In the second incident an I.E.D explosion took place after the Independence Day celebration function at the Gauripur Field in the Dhubri district at 1320 hrs. No casualty has been reported as public had already left the venue after the morning function. .\n\n. The State Government has placed the Superintendent and Additional Superintendent of Police under suspension for the security lapses. The Deputy Commissioner is also being replaced. State Government has also declared ex-gratia grant of rupees three lakh each to the next of kin of the deceased and Rs. 50,000/- each to the seriously injured. An amount of Rs. 10,000/- each will be paid to those who suffered minor injuries. All the medical expenses of the injured will be borne by the State Government. .\n\n. State mourning was observed on 16th August and peace processions and public meetings condemning the dastardly acts and asking the militants to shun acts of violence are being held today. .\n\n. The Government of India shall provide all the assistance required by the State Government to counter the acts of violence and insurgency, perpetrated by the militants'
p3646
sS'LINK'
p3647
S'http://indiankanoon.org/doc/1873469/'
p3648
sS'LOCATION'
p3649
VAssam
p3650
sS'TIME'
p3651
F0.2573632538569425
sg12
(dp3652
g14
(lp3653
VDibrugarh
p3654
aVAssam
p3655
aVDhakuakhana
p3656
aVDhakuakhana
p3657
aVNorth Lakhimpur
p3658
aVGauripur
p3659
aVDhubri
p3660
aVDhemaji
p3661
aVAssam
p3662
asg20
(lp3663
VSHRI SHRIPRAKASH JAISWAL
p3664
aVShri Shivraj Patil
p3665
asg23
(lp3666
VMINISTER
p3667
aVSTATE
p3668
aVMINISTRY
p3669
aVHOME
p3670
aVAFFAIRS
p3671
aVSir
p3672
aVbehalf
p3673
aVmake
p3674
aVstatement
p3675
aVpowerful
p3676
aVbomb
p3677
aVexplosion
p3678
aVtook
p3679
aVplace
p3680
aV0850
p3681
aVhrs
p3682
aV15th
p3683
aVvenue
p3684
aVIndependence
p3685
aVDay
p3686
aVfunction
p3687
aVDhemaji
p3688
aVcollege
p3689
aVground
p3690
aVresulting
p3691
aVdeath
p3692
aV13
p3693
aVpersons
p3694
aVseven
p3695
aVmale
p3696
aVsix
p3697
aVfemale
p3698
aVincluding
p3699
aVfive
p3700
aVschool
p3701
aVchildren
p3702
aVinjuries
p3703
aVothers
p3704
aVvictims
p3705
aVspectators
p3706
aVcome
p3707
aVparticipate
p3708
aVfunction
p3709
aVCritically
p3710
aVinjured
p3711
aVpersons
p3712
aVshifted
p3713
aVPreliminary
p3714
aVinvestigations
p3715
aVrevealed
p3716
aVexplosion
p3717
aVcaused
p3718
aVI.E.D
p3719
aVplanted
p3720
aV40/50
p3721
aVmeters
p3722
aVrostrum
p3723
aVnear
p3724
aVpublic
p3725
aVenclosure
p3726
aVexplosion
p3727
aVappears
p3728
aVhandiwork
p3729
aVULFA
p3730
aVcadres
p3731
aVFlag
p3732
aVhoisted
p3733
aVDeputy
p3734
aVCommissioner
p3735
aV0915
p3736
aVhrs
p3737
aVvenue
p3738
aVtwo
p3739
aVincidents
p3740
aVIndependence
p3741
aVDay
p3742
aVone
p3743
aVincident
p3744
aVI.E.D
p3745
aVexplosion
p3746
aVtook
p3747
aVplace
p3748
aVfield
p3749
aVsub
p3750
aVvision
p3751
aVdistrict
p3752
aV0755
p3753
aVhrs
p3754
aVincident
p3755
aVI.E.D
p3756
aVburied
p3757
aVbeneath
p3758
aVflag
p3759
aVpost
p3760
aVcasualty
p3761
aVreported
p3762
aVexplosion
p3763
aVcaused
p3764
aVtimed
p3765
aVdevice
p3766
aVplanted
p3767
aVwell
p3768
aVadvance
p3769
aVULFA
p3770
aVcadres
p3771
aVsuspected
p3772
aVbehind
p3773
aVact
p3774
aVsecond
p3775
aVincident
p3776
aVI.E.D
p3777
aVexplosion
p3778
aVtook
p3779
aVplace
p3780
aVIndependence
p3781
aVDay
p3782
aVcelebration
p3783
aVfunction
p3784
aVField
p3785
aVdistrict
p3786
aV1320
p3787
aVhrs
p3788
aVcasualty
p3789
aVreported
p3790
aVpublic
p3791
aValready
p3792
aVleft
p3793
aVvenue
p3794
aVmorning
p3795
aVfunction
p3796
aVplaced
p3797
aVSuperintendent
p3798
aVAdditional
p3799
aVSuperintendent
p3800
aVPolice
p3801
aVsuspension
p3802
aVsecurity
p3803
aVlapses
p3804
aVDeputy
p3805
aVCommissioner
p3806
aValso
p3807
aVreplaced
p3808
aValso
p3809
aVdeclared
p3810
aVex-gratia
p3811
aVgrant
p3812
aVrupees
p3813
aVthree
p3814
aVlakh
p3815
aVnext
p3816
aVkin
p3817
aVdeceased
p3818
aVRs
p3819
aV50,000
p3820
aVseriously
p3821
aVinjured
p3822
aVamount
p3823
aVRs
p3824
aV10,000
p3825
aVpaid
p3826
aVsuffered
p3827
aVminor
p3828
aVinjuries
p3829
aVmedical
p3830
aVexpenses
p3831
aVinjured
p3832
aVborne
p3833
aVState
p3834
aVmourning
p3835
aVobserved
p3836
aV16th
p3837
aVpeace
p3838
aVprocessions
p3839
aVpublic
p3840
aVmeetings
p3841
aVcondemning
p3842
aVdastardly
p3843
aVacts
p3844
aVasking
p3845
aVmilitants
p3846
aVshun
p3847
aVacts
p3848
aVviolence
p3849
aVheld
p3850
aVtoday
p3851
aVshall
p3852
aVprovide
p3853
aVassistance
p3854
aVrequired
p3855
aVcounter
p3856
aVacts
p3857
aVviolence
p3858
aVinsurgency
p3859
aVperpetrated
p3860
aVmilitantsRegarding
p3861
aVIncident
p3862
aVBomb
p3863
aVBlast
p3864
aVDistrict
p3865
aV17
p3866
aV2004
p3867
asg114
(lp3868
sg116
(lp3869
VAugust
p3870
aV2004
p3871
aVAugust
p3872
aVAugust
p3873
asg120
(lp3874
VAssam Medical College
p3875
aVNormal School
p3876
aVState Government
p3877
aVState Government
p3878
aVState Government
p3879
aVGovernment of India
p3880
aVState Government
p3881
asg122
(lp3882
VTHE
p3883
ag3667
aVOF
p3884
ag3668
aVIN
p3885
aVTHE
p3886
ag3669
aVOF
p3887
ag3670
ag3671
aV-LRB-
p3888
aV-RRB-
p3889
ag850
ag3672
aV,
p3890
aVon
p3891
ag3673
aVof
p3892
aV,
p3893
aVI
p3894
ag3674
aVthis
p3895
ag3675
aV.
p3896
aV.
p3897
aV.
p3898
aVA
p3899
ag3676
ag3677
ag3678
ag3679
ag3680
aVat
p3900
ag3681
ag3682
aV.
p3901
aVon
p3902
ag3683
aV,
p3903
aVat
p3904
aVthe
p3905
ag3684
aVof
p3906
aVthe
p3907
ag3685
ag3686
ag3687
aVin
p3908
aVthe
p3909
ag3688
ag3689
ag3690
aV,
p3910
ag3691
aVin
p3911
aVthe
p3912
ag3692
aVof
p3913
ag3693
ag3694
aV-LRB-
p3914
ag3695
ag3696
aVand
p3915
ag3697
ag3698
ag3699
ag3700
ag3701
ag3702
aV-RRB-
p3916
aVand
p3917
ag3703
aVto
p3918
aVa
p3919
aVfew
p3920
ag3704
aV.
p3921
aVAll
p3922
aVthe
p3923
ag3705
aVwere
p3924
ag3706
aVwho
p3925
aVhad
p3926
ag3707
aVto
p3927
ag3708
aVin
p3928
aVthe
p3929
ag3709
aV.
p3930
ag3710
ag3711
ag3712
aVhave
p3931
aVbeen
p3932
ag3713
aVto
p3933
aVthe
p3934
aV,
p3935
aV.
p3936
ag3714
ag3715
aVhave
p3937
ag3716
aVthat
p3938
aVthe
p3939
ag3717
aVwas
p3940
ag3718
aVby
p3941
aVan
p3942
ag3719
ag3720
ag3721
ag3722
aVfrom
p3943
aVthe
p3944
ag3723
ag3724
aVthe
p3945
ag3725
ag3726
aV.
p3946
aVThe
p3947
ag3727
ag3728
aVto
p3948
aVbe
p3949
aVthe
p3950
ag3729
aVof
p3951
ag3730
ag3731
aV.
p3952
aVThe
p3953
ag3732
aVwas
p3954
ag3733
aVby
p3955
aVthe
p3956
ag3734
ag3735
aVat
p3957
ag3736
ag3737
aV.
p3958
aVat
p3959
aVthe
p3960
aVsame
p3961
ag3738
aV.
p3962
aV.
p3963
aV.
p3964
aVThere
p3965
aVwere
p3966
ag3739
aVother
p3967
ag3740
aVin
p3968
aVon
p3969
ag3741
ag3742
aV.
p3970
aVIn
p3971
ag3743
ag3744
aVan
p3972
ag3745
ag3746
ag3747
ag3748
aVin
p3973
aVthe
p3974
aV,
p3975
ag3749
aV,
p3976
ag3750
ag3751
aVof
p3977
ag3752
aVat
p3978
ag3753
ag3754
aV.
p3979
aVIn
p3980
aVthis
p3981
ag3755
aVan
p3982
ag3756
aVwas
p3983
ag3757
aVjust
p3984
ag3758
aVthe
p3985
ag3759
ag3760
aV.
p3986
aVNo
p3987
ag3761
aVhas
p3988
aVbeen
p3989
ag3762
aV.
p3990
aVThe
p3991
ag3763
aVwas
p3992
ag3764
aVby
p3993
ag3765
ag3766
ag3767
ag3768
aVin
p3994
ag3769
aVand
p3995
ag3770
ag3771
aVare
p3996
ag3772
aVto
p3997
aVbe
p3998
ag3773
aVthe
p3999
ag3774
aV.
p4000
aV.
p4001
aV.
p4002
aVIn
p4003
aVthe
p4004
ag3775
ag3776
aVan
p4005
ag3777
ag3778
ag3779
ag3780
aVafter
p4006
aVthe
p4007
ag3781
ag3782
ag3783
ag3784
aVat
p4008
aVthe
p4009
ag3785
aVin
p4010
aVthe
p4011
ag3786
aVat
p4012
ag3787
ag3788
aV.
p4013
aVNo
p4014
ag3789
aVhas
p4015
aVbeen
p4016
ag3790
aVas
p4017
ag3791
aVhad
p4018
ag3792
ag3793
aVthe
p4019
ag3794
aVafter
p4020
aVthe
p4021
ag3795
ag3796
aV.
p4022
aV.
p4023
aV.
p4024
aVThe
p4025
aVhas
p4026
ag3797
aVthe
p4027
ag3798
aVand
p4028
ag3799
ag3800
aVof
p4029
ag3801
aVunder
p4030
ag3802
aVfor
p4031
aVthe
p4032
ag3803
ag3804
aV.
p4033
aVThe
p4034
ag3805
ag3806
aVis
p4035
ag3807
aVbeing
p4036
ag3808
aV.
p4037
aVhas
p4038
ag3809
ag3810
ag3811
ag3812
aVof
p4039
ag3813
ag3814
ag3815
aVeach
p4040
aVto
p4041
aVthe
p4042
ag3816
aVof
p4043
ag3817
aVof
p4044
aVthe
p4045
ag3818
aVand
p4046
ag3819
aV.
p4047
ag3820
aV/
p4048
aV-
p4049
aVeach
p4050
aVto
p4051
aVthe
p4052
ag3821
ag3822
aV.
p4053
aVAn
p4054
ag3823
aVof
p4055
ag3824
aV.
p4056
ag3825
ag4048
aV-
p4057
aVeach
p4058
aVwill
p4059
aVbe
p4060
ag3826
aVto
p4061
aVthose
p4062
aVwho
p4063
ag3827
ag3828
ag3829
aV.
p4064
aVAll
p4065
aVthe
p4066
ag3830
ag3831
aVof
p4067
aVthe
p4068
ag3832
aVwill
p4069
aVbe
p4070
ag3833
aVby
p4071
aVthe
p4072
aV.
p4073
aV.
p4074
aV.
p4075
ag3834
ag3835
aVwas
p4076
ag3836
aVon
p4077
ag3837
aVand
p4078
ag3838
ag3839
aVand
p4079
ag3840
ag3841
ag3842
aVthe
p4080
ag3843
ag3844
aVand
p4081
ag3845
aVthe
p4082
ag3846
aVto
p4083
ag3847
ag3848
aVof
p4084
ag3849
aVare
p4085
aVbeing
p4086
ag3850
ag3851
aV.
p4087
aV.
p4088
aV.
p4089
aVThe
p4090
ag3852
ag3853
aVall
p4091
aVthe
p4092
ag3854
ag3855
aVby
p4093
aVthe
p4094
aVto
p4095
ag3856
aVthe
p4096
ag3857
aVof
p4097
ag3858
aVand
p4098
ag3859
aV,
p4099
ag3860
aVby
p4100
aVthe
p4101
ag3861
ag3862
aVOf
p4102
ag3863
ag3864
aVAt
p4103
ag3865
aV,
p4104
aV.
p4105
aVon
p4106
ag3866
aV,
p4107
ag3867
aV.
p4108
asg236
(lp4109
g3667
ag3668
ag3669
ag3670
ag3671
ag3672
ag3673
ag3674
ag3675
ag3676
ag3677
ag3678
ag3679
ag3680
ag3681
ag3682
ag3683
ag3684
ag3685
ag3686
ag3687
ag3688
ag3689
ag3690
ag3691
ag3692
ag3693
ag3694
ag3695
ag3696
ag3697
ag3698
ag3699
ag3700
ag3701
ag3702
ag3703
ag3704
ag3705
ag3706
ag3707
ag3708
ag3709
ag3710
ag3711
ag3712
ag3713
ag3714
ag3715
ag3716
ag3717
ag3718
ag3719
ag3720
ag3721
ag3722
ag3723
ag3724
ag3725
ag3726
ag3727
ag3728
ag3729
ag3730
ag3731
ag3732
ag3733
ag3734
ag3735
ag3736
ag3737
ag3738
ag3739
ag3740
ag3741
ag3742
ag3743
ag3744
ag3745
ag3746
ag3747
ag3748
ag3749
ag3750
ag3751
ag3752
ag3753
ag3754
ag3755
ag3756
ag3757
ag3758
ag3759
ag3760
ag3761
ag3762
ag3763
ag3764
ag3765
ag3766
ag3767
ag3768
ag3769
ag3770
ag3771
ag3772
ag3773
ag3774
ag3775
ag3776
ag3777
ag3778
ag3779
ag3780
ag3781
ag3782
ag3783
ag3784
ag3785
ag3786
ag3787
ag3788
ag3789
ag3790
ag3791
ag3792
ag3793
ag3794
ag3795
ag3796
ag3797
ag3798
ag3799
ag3800
ag3801
ag3802
ag3803
ag3804
ag3805
ag3806
ag3807
ag3808
ag3809
ag3810
ag3811
ag3812
ag3813
ag3814
ag3815
ag3816
ag3817
ag3818
ag3819
ag3820
ag3821
ag3822
ag3823
ag3824
ag3825
ag3826
ag3827
ag3828
ag3829
ag3830
ag3831
ag3832
ag3833
ag3834
ag3835
ag3836
ag3837
ag3838
ag3839
ag3840
ag3841
ag3842
ag3843
ag3844
ag3845
ag3846
ag3847
ag3848
ag3849
ag3850
ag3851
ag3852
ag3853
ag3854
ag3855
ag3856
ag3857
ag3858
ag3859
ag3860
ag3861
ag3862
ag3863
ag3864
ag3865
ag3866
ag3867
asssS'ev_001_st_002.html'
p4110
(dp4111
S'TITLE'
p4112
S"ULFA triggers blast in Assam's Bongaigaon district, 13 injured"
p4113
sS'CONTENT'
p4114
S"GUWAHATI: Thirteen persons were injured, three of them seriously, in a powerful bomb explosion by ULFA in Lower Assam's Bongaigaon district on Monday morning.   The Programmable Time Device (PTD) was kept concealed inside a bicycle in Bongaigaon town's Paglathan Bazar.   The bomb went off at 9.30 a.m. when the area near the rail gate was busy with shoppers creating chaos. People ran in panic and shop keepers downed their shutters.   The area has been cordoned off, police said.   The injured have been hospitalised, and the condition of three is stated to be serious.   On Friday, the ULFA triggered a powerful blast at Fancy Bazaar here, targetting Hindi-speaking businessmen. Five persons were injured in the attack.   A terror attack was averted on Sunday with the recovery of a bomb containing one kilogram of RDX near the main fish market of Assam's Jorhat district"
p4115
sS'LINK'
p4116
S'http://timesofindia.indiatimes.com/india/ULFA-triggers-blast-in-Assams-Bongaigaon-district-13-injured/articleshow/2063922.cms?'
p4117
sS'LOCATION'
p4118
V GUWAHATI
p4119
sS'TIME'
p4120
F0.43390603085553997
sg12
(dp4121
g14
(lp4122
VGUWAHATI
p4123
aVAssam
p4124
aVBongaigaon
p4125
aVBongaigaon
p4126
aVPaglathan Bazar
p4127
aVAssam
p4128
aVAssam
p4129
aVBongaigaon
p4130
asg20
(lp4131
sg23
(lp4132
VThirteen
p4133
aVpersons
p4134
aVinjured
p4135
aVthree
p4136
aVseriously
p4137
aVpowerful
p4138
aVbomb
p4139
aVexplosion
p4140
aVLower
p4141
aV's
p4142
aVdistrict
p4143
aVmorning
p4144
aVProgrammable
p4145
aVTime
p4146
aVDevice
p4147
aVPTD
p4148
aVkept
p4149
aVconcealed
p4150
aVinside
p4151
aVbicycle
p4152
aVtown
p4153
aV's
p4154
aVbomb
p4155
aVwent
p4156
aVarea
p4157
aVnear
p4158
aVrail
p4159
aVgate
p4160
aVbusy
p4161
aVshoppers
p4162
aVcreating
p4163
aVchaos
p4164
aVPeople
p4165
aVran
p4166
aVpanic
p4167
aVshop
p4168
aVkeepers
p4169
aVdowned
p4170
aVshutters
p4171
aVarea
p4172
aVcordoned
p4173
aVpolice
p4174
aVsaid
p4175
aVinjured
p4176
aVhospitalised
p4177
aVcondition
p4178
aVthree
p4179
aVstated
p4180
aVserious
p4181
aVULFA
p4182
aVtriggered
p4183
aVpowerful
p4184
aVblast
p4185
aVFancy
p4186
aVBazaar
p4187
aVtargetting
p4188
aVHindi-speaking
p4189
aVbusinessmen
p4190
aVFive
p4191
aVpersons
p4192
aVinjured
p4193
aVattack
p4194
aVterror
p4195
aVattack
p4196
aVaverted
p4197
aVrecovery
p4198
aVbomb
p4199
aVcontaining
p4200
aVone
p4201
aVkilogram
p4202
aVRDX
p4203
aVnear
p4204
aVmain
p4205
aVfish
p4206
aVmarket
p4207
aV's
p4208
aVJorhat
p4209
aVdistrictULFA
p4210
aVtriggers
p4211
aVblast
p4212
aV's
p4213
aVdistrict
p4214
aV13
p4215
aVinjured
p4216
asg114
(lp4217
V9.30 a.m.
p4218
asg116
(lp4219
VMonday
p4220
aVFriday
p4221
aVSunday
p4222
asg120
(lp4223
VULFA
p4224
asg122
(lp4225
g850
ag4133
ag4134
aVwere
p4226
ag4135
aV,
p4227
ag4136
aVof
p4228
aVthem
p4229
ag4137
aV,
p4230
aVin
p4231
aVa
p4232
ag4138
ag4139
ag4140
aVby
p4233
aVin
p4234
ag4141
ag4142
ag4143
aVon
p4235
ag4144
aV.
p4236
aVThe
p4237
ag4145
ag4146
ag4147
aV-LRB-
p4238
ag4148
aV-RRB-
p4239
aVwas
p4240
ag4149
ag4150
ag4151
aVa
p4241
ag4152
aVin
p4242
ag4153
ag4154
aV.
p4243
aVThe
p4244
ag4155
ag4156
aVoff
p4245
aVat
p4246
aVwhen
p4247
aVthe
p4248
ag4157
ag4158
aVthe
p4249
ag4159
ag4160
aVwas
p4250
ag4161
aVwith
p4251
ag4162
ag4163
ag4164
aV.
p4252
ag4165
ag4166
aVin
p4253
ag4167
aVand
p4254
ag4168
ag4169
ag4170
aVtheir
p4255
ag4171
aV.
p4256
aVThe
p4257
ag4172
aVhas
p4258
aVbeen
p4259
ag4173
aVoff
p4260
aV,
p4261
ag4174
ag4175
aV.
p4262
aVThe
p4263
ag4176
aVhave
p4264
aVbeen
p4265
ag4177
aV,
p4266
aVand
p4267
aVthe
p4268
ag4178
aVof
p4269
ag4179
aVis
p4270
ag4180
aVto
p4271
aVbe
p4272
ag4181
aV.
p4273
aVOn
p4274
aV,
p4275
aVthe
p4276
ag4182
ag4183
aVa
p4277
ag4184
ag4185
aVat
p4278
ag4186
ag4187
aVhere
p4279
aV,
p4280
ag4188
ag4189
ag4190
aV.
p4281
ag4191
ag4192
aVwere
p4282
ag4193
aVin
p4283
aVthe
p4284
ag4194
aV.
p4285
aVA
p4286
ag4195
ag4196
aVwas
p4287
ag4197
aVon
p4288
aVwith
p4289
aVthe
p4290
ag4198
aVof
p4291
aVa
p4292
ag4199
ag4200
ag4201
ag4202
aVof
p4293
ag4203
ag4204
aVthe
p4294
ag4205
ag4206
ag4207
aVof
p4295
ag4208
ag4209
ag4210
ag4211
ag4212
aVin
p4296
ag4213
ag4214
aV,
p4297
ag4215
ag4216
aV.
p4298
asg236
(lp4299
g4133
ag4134
ag4135
ag4136
ag4137
ag4138
ag4139
ag4140
ag4141
ag4142
ag4143
ag4144
ag4145
ag4146
ag4147
ag4148
ag4149
ag4150
ag4151
ag4152
ag4153
ag4154
ag4155
ag4156
ag4157
ag4158
ag4159
ag4160
ag4161
ag4162
ag4163
ag4164
ag4165
ag4166
ag4167
ag4168
ag4169
ag4170
ag4171
ag4172
ag4173
ag4174
ag4175
ag4176
ag4177
ag4178
ag4179
ag4180
ag4181
ag4182
ag4183
ag4184
ag4185
ag4186
ag4187
ag4188
ag4189
ag4190
ag4191
ag4192
ag4193
ag4194
ag4195
ag4196
ag4197
ag4198
ag4199
ag4200
ag4201
ag4202
ag4203
ag4204
ag4205
ag4206
ag4207
ag4208
ag4209
ag4210
ag4211
ag4212
ag4213
ag4214
ag4215
ag4216
asssS'ev_014_st_001.html'
p4300
(dp4301
g240
S'16 killed, 40 injured in Assam blast'
p4302
sg242
S"Front Page                 16 killed, 40 injured in Assam blast .\n\n. By Sushanta Talukdar .\n\n. GUWAHATI,                                                                                                                        AUG. 15.                                                             Sixteen schoolchildren, including nine girls, were killed and 40 injured in Assam's Dhemaji district today, when suspected militants of the banned United Liberation Front of Asom (ULFA) triggered a powerful blast. .\n\n. Police said that the blast triggered by a remote-controlled device took place around 9 a.m. when the children gathered at Dhemaji College ground for the Independence Day parade. All the injured have been admitted to the Dhemaji Civil Hospital and 10 of the critically injured will be shifted to Dibrugarh Civil Hospital. .\n\n. Another blast at Dhakuakhana in the same district uprooted the main pillar for the flag in the central field near Normal School. There was no casualty in the blast which occurred at 7.55 a.m. .\n\n. There were also reports of a bomb explosion in Dhubri district this afternoon. The bomb planted in the Gauripur ground where Independence Day was being observed this morning went off at 1. 20 p.m. just behind the VIP enclosure. There were no reports of casualty. .\n\n. The ULFA had called for a boycott of the celebrations, along with five other rebel groups of the northeast region. The outfits had called a general strike beginning on the midnight of August 14 till 5.30 p.m. today. However, the ULFA attack came despite the militant outfit announcing that the general strike would be enforced only in Guwahati in view of the prevailing flood situation. .\n\n. Most barbaric: Gogoi .\n\n. The Assam Chief Minister, Tarun Gogoi, condemned the blast and announced that the State would observe August 16 as mourning day in memory of the killed children"
p4303
sg244
S'http://www.thehindu.com/2004/08/16/stories/2004081604820100.htm'
p4304
sg246
S'GUWAHATI'
p4305
sg248
F0.25718793828892006
sg12
(dp4306
g14
(lp4307
VAssam
p4308
aVAssam
p4309
aVDhemaji
p4310
aVDhakuakhana
p4311
aVDhubri
p4312
aVGauripur
p4313
aVGuwahati
p4314
aVAssam
p4315
aVAssam
p4316
asg20
(lp4317
VSushanta Talukdar
p4318
aVTarun Gogoi
p4319
asg23
(lp4320
VFront
p4321
aVPage
p4322
aV16
p4323
aVkilled
p4324
aV40
p4325
aVinjured
p4326
aVblast
p4327
aVGUWAHATI
p4328
aVAUG.
p4329
aV15
p4330
aVSixteen
p4331
aVschoolchildren
p4332
aVincluding
p4333
aVnine
p4334
aVgirls
p4335
aVkilled
p4336
aV40
p4337
aVinjured
p4338
aV's
p4339
aVdistrict
p4340
aVtoday
p4341
aVsuspected
p4342
aVmilitants
p4343
aVbanned
p4344
aVUnited
p4345
aVLiberation
p4346
aVFront
p4347
aVAsom
p4348
aVtriggered
p4349
aVpowerful
p4350
aVblast
p4351
aVPolice
p4352
aVsaid
p4353
aVblast
p4354
aVtriggered
p4355
aVremote-controlled
p4356
aVdevice
p4357
aVtook
p4358
aVplace
p4359
aVaround
p4360
aVchildren
p4361
aVgathered
p4362
aVground
p4363
aVIndependence
p4364
aVDay
p4365
aVparade
p4366
aVinjured
p4367
aVadmitted
p4368
aV10
p4369
aVcritically
p4370
aVinjured
p4371
aVshifted
p4372
aVAnother
p4373
aVblast
p4374
aVdistrict
p4375
aVuprooted
p4376
aVmain
p4377
aVpillar
p4378
aVflag
p4379
aVcentral
p4380
aVfield
p4381
aVnear
p4382
aVcasualty
p4383
aVblast
p4384
aVoccurred
p4385
aValso
p4386
aVreports
p4387
aVbomb
p4388
aVexplosion
p4389
aVdistrict
p4390
aVafternoon
p4391
aVbomb
p4392
aVplanted
p4393
aVground
p4394
aVIndependence
p4395
aVDay
p4396
aVobserved
p4397
aVmorning
p4398
aVwent
p4399
aV1
p4400
aV20
p4401
aVp.m.
p4402
aVbehind
p4403
aVVIP
p4404
aVenclosure
p4405
aVreports
p4406
aVcasualty
p4407
aVULFA
p4408
aVcalled
p4409
aVboycott
p4410
aVcelebrations
p4411
aValong
p4412
aVfive
p4413
aVrebel
p4414
aVgroups
p4415
aVnortheast
p4416
aVregion
p4417
aVoutfits
p4418
aVcalled
p4419
aVgeneral
p4420
aVstrike
p4421
aVbeginning
p4422
aVmidnight
p4423
aVtill
p4424
aVtoday
p4425
aVHowever
p4426
aVULFA
p4427
aVattack
p4428
aVcame
p4429
aVdespite
p4430
aVmilitant
p4431
aVoutfit
p4432
aVannouncing
p4433
aVgeneral
p4434
aVstrike
p4435
aVwould
p4436
aVenforced
p4437
aVview
p4438
aVprevailing
p4439
aVflood
p4440
aVsituation
p4441
aVbarbaric
p4442
aVGogoi
p4443
aVChief
p4444
aVMinister
p4445
aVcondemned
p4446
aVblast
p4447
aVannounced
p4448
aVState
p4449
aVwould
p4450
aVobserve
p4451
aVmourning
p4452
aVday
p4453
aVmemory
p4454
aVkilled
p4455
aVchildren16
p4456
aVkilled
p4457
aV40
p4458
aVinjured
p4459
aVblast
p4460
asg114
(lp4461
V9 a.m.
p4462
aV7.55 a.m.
p4463
aV5.30 p.m.
p4464
asg116
(lp4465
VAugust 14
p4466
aVAugust 16
p4467
asg120
(lp4468
VULFA
p4469
aVDhemaji College
p4470
aVDhemaji Civil Hospital
p4471
aVDibrugarh Civil Hospital
p4472
aVNormal School
p4473
asg122
(lp4474
g4321
ag4322
ag4323
ag4324
aV,
p4475
ag4325
ag4326
aVin
p4476
ag4327
aV.
p4477
aV.
p4478
aVBy
p4479
aV.
p4480
aV.
p4481
ag4328
aV,
p4482
ag4329
ag4330
aV.
p4483
ag4331
ag4332
aV,
p4484
ag4333
ag4334
ag4335
aV,
p4485
aVwere
p4486
ag4336
aVand
p4487
ag4337
ag4338
aVin
p4488
ag4339
ag4340
ag4341
aV,
p4489
aVwhen
p4490
ag4342
ag4343
aVof
p4491
aVthe
p4492
ag4344
ag4345
ag4346
ag4347
aVof
p4493
ag4348
aV-LRB-
p4494
aV-RRB-
p4495
ag4349
aVa
p4496
ag4350
ag4351
aV.
p4497
aV.
p4498
aV.
p4499
ag4352
ag4353
aVthat
p4500
aVthe
p4501
ag4354
ag4355
aVby
p4502
aVa
p4503
ag4356
ag4357
ag4358
ag4359
ag4360
aVwhen
p4504
aVthe
p4505
ag4361
ag4362
aVat
p4506
ag4363
aVfor
p4507
aVthe
p4508
ag4364
ag4365
ag4366
aV.
p4509
aVAll
p4510
aVthe
p4511
ag4367
aVhave
p4512
aVbeen
p4513
ag4368
aVto
p4514
aVthe
p4515
aVand
p4516
ag4369
aVof
p4517
aVthe
p4518
ag4370
ag4371
aVwill
p4519
aVbe
p4520
ag4372
aVto
p4521
aV.
p4522
aV.
p4523
aV.
p4524
ag4373
ag4374
aVat
p4525
aVin
p4526
aVthe
p4527
aVsame
p4528
ag4375
ag4376
aVthe
p4529
ag4377
ag4378
aVfor
p4530
aVthe
p4531
ag4379
aVin
p4532
aVthe
p4533
ag4380
ag4381
ag4382
aV.
p4534
aVThere
p4535
aVwas
p4536
aVno
p4537
ag4383
aVin
p4538
aVthe
p4539
ag4384
aVwhich
p4540
ag4385
aVat
p4541
aV.
p4542
aV.
p4543
aVThere
p4544
aVwere
p4545
ag4386
ag4387
aVof
p4546
aVa
p4547
ag4388
ag4389
aVin
p4548
ag4390
aVthis
p4549
ag4391
aV.
p4550
aVThe
p4551
ag4392
ag4393
aVin
p4552
aVthe
p4553
ag4394
aVwhere
p4554
ag4395
ag4396
aVwas
p4555
aVbeing
p4556
ag4397
aVthis
p4557
ag4398
ag4399
aVoff
p4558
aVat
p4559
ag4400
aV.
p4560
ag4401
ag4402
aVjust
p4561
ag4403
aVthe
p4562
ag4404
ag4405
aV.
p4563
aVThere
p4564
aVwere
p4565
aVno
p4566
ag4406
aVof
p4567
ag4407
aV.
p4568
aV.
p4569
aV.
p4570
aVThe
p4571
ag4408
aVhad
p4572
ag4409
aVfor
p4573
aVa
p4574
ag4410
aVof
p4575
aVthe
p4576
ag4411
aV,
p4577
ag4412
aVwith
p4578
ag4413
aVother
p4579
ag4414
ag4415
aVof
p4580
aVthe
p4581
ag4416
ag4417
aV.
p4582
aVThe
p4583
ag4418
aVhad
p4584
ag4419
aVa
p4585
ag4420
ag4421
ag4422
aVon
p4586
aVthe
p4587
ag4423
aVof
p4588
ag4424
ag4425
aV.
p4589
ag4426
aV,
p4590
aVthe
p4591
ag4427
ag4428
ag4429
ag4430
aVthe
p4592
ag4431
ag4432
ag4433
aVthat
p4593
aVthe
p4594
ag4434
ag4435
ag4436
aVbe
p4595
ag4437
aVonly
p4596
aVin
p4597
aVin
p4598
ag4438
aVof
p4599
aVthe
p4600
ag4439
ag4440
ag4441
aV.
p4601
aV.
p4602
aV.
p4603
aVMost
p4604
ag4442
ag850
ag4443
aV.
p4605
aV.
p4606
aVThe
p4607
ag4444
ag4445
aV,
p4608
aV,
p4609
ag4446
aVthe
p4610
ag4447
aVand
p4611
ag4448
aVthat
p4612
aVthe
p4613
ag4449
ag4450
ag4451
aVas
p4614
ag4452
ag4453
aVin
p4615
ag4454
aVof
p4616
aVthe
p4617
ag4455
ag4456
ag4457
aV,
p4618
ag4458
ag4459
aVin
p4619
ag4460
aV.
p4620
asg236
(lp4621
g4321
ag4322
ag4323
ag4324
ag4325
ag4326
ag4327
ag4328
ag4329
ag4330
ag4331
ag4332
ag4333
ag4334
ag4335
ag4336
ag4337
ag4338
ag4339
ag4340
ag4341
ag4342
ag4343
ag4344
ag4345
ag4346
ag4347
ag4348
ag4349
ag4350
ag4351
ag4352
ag4353
ag4354
ag4355
ag4356
ag4357
ag4358
ag4359
ag4360
ag4361
ag4362
ag4363
ag4364
ag4365
ag4366
ag4367
ag4368
ag4369
ag4370
ag4371
ag4372
ag4373
ag4374
ag4375
ag4376
ag4377
ag4378
ag4379
ag4380
ag4381
ag4382
ag4383
ag4384
ag4385
ag4386
ag4387
ag4388
ag4389
ag4390
ag4391
ag4392
ag4393
ag4394
ag4395
ag4396
ag4397
ag4398
ag4399
ag4400
ag4401
ag4402
ag4403
ag4404
ag4405
ag4406
ag4407
ag4408
ag4409
ag4410
ag4411
ag4412
ag4413
ag4414
ag4415
ag4416
ag4417
ag4418
ag4419
ag4420
ag4421
ag4422
ag4423
ag4424
ag4425
ag4426
ag4427
ag4428
ag4429
ag4430
ag4431
ag4432
ag4433
ag4434
ag4435
ag4436
ag4437
ag4438
ag4439
ag4440
ag4441
ag4442
ag4443
ag4444
ag4445
ag4446
ag4447
ag4448
ag4449
ag4450
ag4451
ag4452
ag4453
ag4454
ag4455
ag4456
ag4457
ag4458
ag4459
ag4460
asssS'ev_014_st_006.html'
p4622
(dp4623
g1728
S"At least 17 school children, including nine girls, were killed and 40 injured in a bomb explosion at an official Independence Day function in Assam's Dhemaji town on Sunday. .\n\n. The United Liberation Front of Asom, whichhad given a boycott call for I-day celebrations, is suspected to be behind the attack.  .\n\n. The powerful blast took place at around 9:00am at the entrance of the Dhemaji College when the official I-Day celebration of the district was about to begin killing 16 children on the spot.  .\n\n. The injured have been admitted to Dhemaji Civil Hospital,official sources said. One child succumbed to injuries at the Dhemaji Civil Hospital. .\n\n. Agitated, people started pelting stones on police vehicles after the blast and gheraoed them forcing them to launch a lathi charge and fire tear gas. When they failed to bring the situation under control, police fired some shots in the air. .\n\n.  .\n\n.  .\n\n.  .\n\n.  .\n\n.  .\n\n.  .\n\n.  .\n\n. Also Read .\n\n.  .\n\n.  .\n\n.  .\n\n.  .\n\n.  .\n\n.  .\n\n.  .\n\n.  .\n\n.  .\n\n.  .\n\n.  .\n\n. Manmohan's dream of a prosperous Bharat .\n\n.  .\n\n. Condemning the incident as 'most inhuman' Assam Chief Minister Tarun Gogoi suspended the district Superintendent of Police T Thangou for 'serious dereliction of duty as the incident happened when militants had already called for a boycott and general strike today'. .\n\n. Inspector General of Police Khagen Sarma said no ministers or VIPs were scheduled to address the I-day function in the college and the militants might have chosen it as a soft target. .\n\n. A probe would be ordered into the security lapse, if any, as vigil had been stepped up in the wake of the ULFA's boycott and strike call. .\n\n. The Minister of State for Home Ruckbul Hussain and DGP P V Sumant have rushed to Dhemaji to take stock of the situation. Gogoi will visit the area on Monday. Policemen have been deployed in the entire town and additional security pickets have been posted in view of the panic and tension. .\n\n. Two more explosions were reported from the state on Sunday. ULFA militants had planted a bomb in the VIP gallery at an Independence Day function in Dhubri. Another bomb exploded in Dhokuakana area in Dhemaji district. There was no report of any casualty. .\n\n. On Saturday, ULFA had triggered an explosion in Dhubri district killing one person and injuring 22 others."
p4624
sg1730
S'http://www.rediff.com/news/2004/aug/15assam.htm'
p4625
sg1732
S'17 killed in Assam blast, Dhemaji SP suspended'
p4626
sg12
(dp4627
g14
(lp4628
VAssam
p4629
aVDhemaji
p4630
aVDhubri
p4631
aVDhokuakana
p4632
aVDhemaji
p4633
aVDhubri
p4634
aVAssam
p4635
asg20
(lp4636
VManmohan
p4637
aVTarun Gogoi
p4638
aVT Thangou
p4639
aVKhagen Sarma
p4640
aVRuckbul Hussain
p4641
aVP V Sumant
p4642
aVDhemaji
p4643
aVDhemaji
p4644
asg23
(lp4645
Vleast
p4646
aV17
p4647
aVschool
p4648
aVchildren
p4649
aVincluding
p4650
aVnine
p4651
aVgirls
p4652
aVkilled
p4653
aV40
p4654
aVinjured
p4655
aVbomb
p4656
aVexplosion
p4657
aVofficial
p4658
aVIndependence
p4659
aVDay
p4660
aVfunction
p4661
aV's
p4662
aVtown
p4663
aVUnited
p4664
aVLiberation
p4665
aVFront
p4666
aVAsom
p4667
aVwhichhad
p4668
aVgiven
p4669
aVboycott
p4670
aVcall
p4671
aVI-day
p4672
aVcelebrations
p4673
aVsuspected
p4674
aVbehind
p4675
aVattack
p4676
aVpowerful
p4677
aVblast
p4678
aVtook
p4679
aVplace
p4680
aVaround
p4681
ag1484
aVentrance
p4682
aVofficial
p4683
aVI-Day
p4684
aVcelebration
p4685
aVdistrict
p4686
aVbegin
p4687
aVkilling
p4688
aV16
p4689
aVchildren
p4690
aVspot
p4691
aVinjured
p4692
aVadmitted
p4693
aVofficial
p4694
aVsources
p4695
aVsaid
p4696
aVOne
p4697
aVchild
p4698
aVsuccumbed
p4699
aVinjuries
p4700
aVAgitated
p4701
aVpeople
p4702
aVstarted
p4703
aVpelting
p4704
aVstones
p4705
aVpolice
p4706
aVvehicles
p4707
aVblast
p4708
aVgheraoed
p4709
aVforcing
p4710
aVlaunch
p4711
aVlathi
p4712
aVcharge
p4713
aVfire
p4714
aVtear
p4715
aVgas
p4716
aVfailed
p4717
aVbring
p4718
aVsituation
p4719
aVcontrol
p4720
aVpolice
p4721
aVfired
p4722
aVshots
p4723
aVair
p4724
aVAlso
p4725
aVRead
p4726
aV's
p4727
aVdream
p4728
aVprosperous
p4729
aVBharat
p4730
aVCondemning
p4731
aVincident
p4732
aVinhuman
p4733
aVAssam
p4734
aVChief
p4735
aVMinister
p4736
aVsuspended
p4737
aVdistrict
p4738
aVSuperintendent
p4739
aVPolice
p4740
aVserious
p4741
aVdereliction
p4742
aVduty
p4743
aVincident
p4744
aVhappened
p4745
aVmilitants
p4746
aValready
p4747
aVcalled
p4748
aVboycott
p4749
aVgeneral
p4750
aVstrike
p4751
aVtoday
p4752
aVInspector
p4753
aVGeneral
p4754
aVPolice
p4755
aVsaid
p4756
aVministers
p4757
aVVIPs
p4758
aVscheduled
p4759
aVaddress
p4760
aVI-day
p4761
aVfunction
p4762
aVcollege
p4763
aVmilitants
p4764
aVmight
p4765
aVchosen
p4766
aVsoft
p4767
aVtarget
p4768
aVprobe
p4769
aVwould
p4770
aVordered
p4771
aVsecurity
p4772
aVlapse
p4773
aVvigil
p4774
aVstepped
p4775
aVwake
p4776
aVULFA
p4777
aV's
p4778
aVboycott
p4779
aVstrike
p4780
aVcall
p4781
aVMinister
p4782
aVState
p4783
aVHome
p4784
aVDGP
p4785
aVrushed
p4786
aVtake
p4787
aVstock
p4788
aVsituation
p4789
aVGogoi
p4790
aVvisit
p4791
aVarea
p4792
aVPolicemen
p4793
aVdeployed
p4794
aVentire
p4795
aVtown
p4796
aVadditional
p4797
aVsecurity
p4798
aVpickets
p4799
aVposted
p4800
aVview
p4801
aVpanic
p4802
aVtension
p4803
aVTwo
p4804
aVexplosions
p4805
aVreported
p4806
aVstate
p4807
aVULFA
p4808
aVmilitants
p4809
aVplanted
p4810
aVbomb
p4811
aVVIP
p4812
aVgallery
p4813
aVIndependence
p4814
aVDay
p4815
aVfunction
p4816
aVAnother
p4817
aVbomb
p4818
aVexploded
p4819
aVarea
p4820
aVdistrict
p4821
aVreport
p4822
aVcasualty
p4823
aVULFA
p4824
aVtriggered
p4825
aVexplosion
p4826
aVdistrict
p4827
aVkilling
p4828
aVone
p4829
aVperson
p4830
aVinjuring
p4831
aV22
p4832
aVothers
p4833
aV.17
p4834
aVkilled
p4835
aVblast
p4836
aVSP
p4837
aVsuspended
p4838
asg114
(lp4839
sg116
(lp4840
VSunday
p4841
aVMonday
p4842
aVSunday
p4843
aVSaturday
p4844
asg120
(lp4845
VDhemaji College
p4846
aVDhemaji Civil Hospital
p4847
aVDhemaji Civil Hospital
p4848
asg122
(lp4849
VAt
p4850
ag4646
ag4647
ag4648
ag4649
aV,
p4851
ag4650
ag4651
ag4652
aV,
p4852
aVwere
p4853
ag4653
aVand
p4854
ag4654
ag4655
aVin
p4855
aVa
p4856
ag4656
ag4657
aVat
p4857
aVan
p4858
ag4658
ag4659
ag4660
ag4661
aVin
p4859
ag4662
ag4663
aVon
p4860
aV.
p4861
aV.
p4862
aV.
p4863
aVThe
p4864
ag4664
ag4665
ag4666
aVof
p4865
ag4667
aV,
p4866
ag4668
ag4669
aVa
p4867
ag4670
ag4671
aVfor
p4868
ag4672
ag4673
aV,
p4869
aVis
p4870
ag4674
aVto
p4871
aVbe
p4872
ag4675
aVthe
p4873
ag4676
aV.
p4874
aV.
p4875
aV.
p4876
aVThe
p4877
ag4677
ag4678
ag4679
ag4680
aVat
p4878
ag4681
ag1484
aVam
p4879
aVat
p4880
aVthe
p4881
ag4682
aVof
p4882
aVthe
p4883
aVwhen
p4884
aVthe
p4885
ag4683
ag4684
ag4685
aVof
p4886
aVthe
p4887
ag4686
aVwas
p4888
aVabout
p4889
aVto
p4890
ag4687
ag4688
ag4689
ag4690
aVon
p4891
aVthe
p4892
ag4691
aV.
p4893
aV.
p4894
aV.
p4895
aVThe
p4896
ag4692
aVhave
p4897
aVbeen
p4898
ag4693
aVto
p4899
aV,
p4900
ag4694
ag4695
ag4696
aV.
p4901
ag4697
ag4698
ag4699
aVto
p4902
ag4700
aVat
p4903
aVthe
p4904
aV.
p4905
aV.
p4906
aV.
p4907
ag4701
aV,
p4908
ag4702
ag4703
ag4704
ag4705
aVon
p4909
ag4706
ag4707
aVafter
p4910
aVthe
p4911
ag4708
aVand
p4912
ag4709
aVthem
p4913
ag4710
aVthem
p4914
aVto
p4915
ag4711
aVa
p4916
ag4712
ag4713
aVand
p4917
ag4714
ag4715
ag4716
aV.
p4918
aVWhen
p4919
aVthey
p4920
ag4717
aVto
p4921
ag4718
aVthe
p4922
ag4719
aVunder
p4923
ag4720
aV,
p4924
ag4721
ag4722
aVsome
p4925
ag4723
aVin
p4926
aVthe
p4927
ag4724
aV.
p4928
aV.
p4929
aV.
p4930
aV.
p4931
aV.
p4932
aV.
p4933
aV.
p4934
aV.
p4935
aV.
p4936
aV.
p4937
aV.
p4938
aV.
p4939
aV.
p4940
aV.
p4941
aV.
p4942
aV.
p4943
aV.
p4944
ag4725
ag4726
aV.
p4945
aV.
p4946
aV.
p4947
aV.
p4948
aV.
p4949
aV.
p4950
aV.
p4951
aV.
p4952
aV.
p4953
aV.
p4954
aV.
p4955
aV.
p4956
aV.
p4957
aV.
p4958
aV.
p4959
aV.
p4960
aV.
p4961
aV.
p4962
aV.
p4963
aV.
p4964
aV.
p4965
aV.
p4966
aV.
p4967
aV.
p4968
ag4727
ag4728
aVof
p4969
aVa
p4970
ag4729
ag4730
aV.
p4971
aV.
p4972
aV.
p4973
aV.
p4974
ag4731
aVthe
p4975
ag4732
aVas
p4976
aV`
p4977
aVmost
p4978
ag4733
aV'
p4979
ag4734
ag4735
ag4736
ag4737
aVthe
p4980
ag4738
ag4739
aVof
p4981
ag4740
aVfor
p4982
aV`
p4983
ag4741
ag4742
aVof
p4984
ag4743
aVas
p4985
aVthe
p4986
ag4744
ag4745
aVwhen
p4987
ag4746
aVhad
p4988
ag4747
ag4748
aVfor
p4989
aVa
p4990
ag4749
aVand
p4991
ag4750
ag4751
ag4752
aV'
p4992
aV.
p4993
aV.
p4994
aV.
p4995
ag4753
ag4754
aVof
p4996
ag4755
ag4756
aVno
p4997
ag4757
aVor
p4998
ag4758
aVwere
p4999
ag4759
aVto
p5000
ag4760
aVthe
p5001
ag4761
ag4762
aVin
p5002
aVthe
p5003
ag4763
aVand
p5004
aVthe
p5005
ag4764
ag4765
aVhave
p5006
ag4766
aVit
p5007
aVas
p5008
aVa
p5009
ag4767
ag4768
aV.
p5010
aV.
p5011
aV.
p5012
aVA
p5013
ag4769
ag4770
aVbe
p5014
ag4771
aVinto
p5015
aVthe
p5016
ag4772
ag4773
aV,
p5017
aVif
p5018
aVany
p5019
aV,
p5020
aVas
p5021
ag4774
aVhad
p5022
aVbeen
p5023
ag4775
aVup
p5024
aVin
p5025
aVthe
p5026
ag4776
aVof
p5027
aVthe
p5028
ag4777
ag4778
ag4779
aVand
p5029
ag4780
ag4781
aV.
p5030
aV.
p5031
aV.
p5032
aVThe
p5033
ag4782
aVof
p5034
ag4783
aVfor
p5035
ag4784
aVand
p5036
ag4785
aVhave
p5037
ag4786
aVto
p5038
aVto
p5039
ag4787
ag4788
aVof
p5040
aVthe
p5041
ag4789
aV.
p5042
ag4790
aVwill
p5043
ag4791
aVthe
p5044
ag4792
aVon
p5045
aV.
p5046
ag4793
aVhave
p5047
aVbeen
p5048
ag4794
aVin
p5049
aVthe
p5050
ag4795
ag4796
aVand
p5051
ag4797
ag4798
ag4799
aVhave
p5052
aVbeen
p5053
ag4800
aVin
p5054
ag4801
aVof
p5055
aVthe
p5056
ag4802
aVand
p5057
ag4803
aV.
p5058
aV.
p5059
aV.
p5060
ag4804
aVmore
p5061
ag4805
aVwere
p5062
ag4806
aVfrom
p5063
aVthe
p5064
ag4807
aVon
p5065
aV.
p5066
ag4808
ag4809
aVhad
p5067
ag4810
aVa
p5068
ag4811
aVin
p5069
aVthe
p5070
ag4812
ag4813
aVat
p5071
aVan
p5072
ag4814
ag4815
ag4816
aVin
p5073
aV.
p5074
ag4817
ag4818
ag4819
aVin
p5075
ag4820
aVin
p5076
ag4821
aV.
p5077
aVThere
p5078
aVwas
p5079
aVno
p5080
ag4822
aVof
p5081
aVany
p5082
ag4823
aV.
p5083
aV.
p5084
aV.
p5085
aVOn
p5086
aV,
p5087
ag4824
aVhad
p5088
ag4825
aVan
p5089
ag4826
aVin
p5090
ag4827
ag4828
ag4829
ag4830
aVand
p5091
ag4831
ag4832
ag4833
ag4834
ag4835
aVin
p5092
ag4836
aV,
p5093
ag4837
ag4838
aV.
p5094
asg236
(lp5095
g4646
ag4647
ag4648
ag4649
ag4650
ag4651
ag4652
ag4653
ag4654
ag4655
ag4656
ag4657
ag4658
ag4659
ag4660
ag4661
ag4662
ag4663
ag4664
ag4665
ag4666
ag4667
ag4668
ag4669
ag4670
ag4671
ag4672
ag4673
ag4674
ag4675
ag4676
ag4677
ag4678
ag4679
ag4680
ag4681
ag1484
ag4682
ag4683
ag4684
ag4685
ag4686
ag4687
ag4688
ag4689
ag4690
ag4691
ag4692
ag4693
ag4694
ag4695
ag4696
ag4697
ag4698
ag4699
ag4700
ag4701
ag4702
ag4703
ag4704
ag4705
ag4706
ag4707
ag4708
ag4709
ag4710
ag4711
ag4712
ag4713
ag4714
ag4715
ag4716
ag4717
ag4718
ag4719
ag4720
ag4721
ag4722
ag4723
ag4724
ag4725
ag4726
ag4727
ag4728
ag4729
ag4730
ag4731
ag4732
ag4733
ag4734
ag4735
ag4736
ag4737
ag4738
ag4739
ag4740
ag4741
ag4742
ag4743
ag4744
ag4745
ag4746
ag4747
ag4748
ag4749
ag4750
ag4751
ag4752
ag4753
ag4754
ag4755
ag4756
ag4757
ag4758
ag4759
ag4760
ag4761
ag4762
ag4763
ag4764
ag4765
ag4766
ag4767
ag4768
ag4769
ag4770
ag4771
ag4772
ag4773
ag4774
ag4775
ag4776
ag4777
ag4778
ag4779
ag4780
ag4781
ag4782
ag4783
ag4784
ag4785
ag4786
ag4787
ag4788
ag4789
ag4790
ag4791
ag4792
ag4793
ag4794
ag4795
ag4796
ag4797
ag4798
ag4799
ag4800
ag4801
ag4802
ag4803
ag4804
ag4805
ag4806
ag4807
ag4808
ag4809
ag4810
ag4811
ag4812
ag4813
ag4814
ag4815
ag4816
ag4817
ag4818
ag4819
ag4820
ag4821
ag4822
ag4823
ag4824
ag4825
ag4826
ag4827
ag4828
ag4829
ag4830
ag4831
ag4832
ag4833
ag4834
ag4835
ag4836
ag4837
ag4838
assg2050
F0.25701262272089764
ss.