(dp0
S'ev_008_st_006.html'
p1
(dp2
S'TITLE'
p3
S'Blast in Imphal, two troopers injured'
p4
sS'CONTENT'
p5
S'The two Assam Rifles troopers were on routine patrolling on Wednesday when the blast hit them in the Keisampat area, a few kilometres from the Manipur Police headquarters. Their condition is stated to be stable, an Assam Rifles official said. .\n\n. A security alert has been sounded and Keisampat has been cordoned off, Imphal district police chief Konsam Jayanta Singh told IANS. He said preliminary reports suggested that the blast could have been triggered by an Improvised Explosive Device. "We have found the wreckage of a scooter from the blast site," he said. .\n\n. No arrests had been made so far, he added. .\n\n. Though no rebel group has claimed responsibility for the blasts, Manipur Police and intelligence officials said the blasts were carried out by rebels. .\n\n. On Monday, a youth was killed in a village of Manipur\'s Thoubal district after a bomb, suspected to have been planted by militants, went off at his house. .\n\n. There are more than 20 rebel outfits in Manipur with demands ranging from secession to greater autonomy. .\n\n. '
p6
sS'LINK'
p7
S'http://www.assamtribune.com/scripts/detailsnew.asp?id=sep0512/at043'
p8
sS'LOCATION'
p9
V Wednesday, September 05 2012
p10
sS'TIME'
p11
F0.7729663394109397
sS'NER'
p12
(dp13
S'LOC'
p14
(lp15
VImphal
p16
aVManipur
p17
aVThoubal
p18
aVImphal
p19
asS'PER'
p20
(lp21
VKonsam Jayanta Singh
p22
asS'DATE'
p23
(lp24
VWednesday
p25
aVMonday
p26
asS'TIME'
p27
(lp28
sS'KEYWORDS'
p29
(lp30
Vtwo
p31
aVAssam
p32
aVRifles
p33
aVtroopers
p34
aVroutine
p35
aVpatrolling
p36
aVblast
p37
aVhit
p38
aVKeisampat
p39
aVarea
p40
aVkilometres
p41
aVManipur
p42
aVPolice
p43
aVheadquarters
p44
aVcondition
p45
aVstated
p46
aVstable
p47
aVAssam
p48
aVRifles
p49
aVofficial
p50
aVsaid
p51
aVsecurity
p52
aValert
p53
aVsounded
p54
aVKeisampat
p55
aVcordoned
p56
aVdistrict
p57
aVpolice
p58
aVchief
p59
aVtold
p60
aVIANS
p61
aVsaid
p62
aVpreliminary
p63
aVreports
p64
aVsuggested
p65
aVblast
p66
aVcould
p67
aVtriggered
p68
aVImprovised
p69
aVExplosive
p70
aVDevice
p71
aVfound
p72
aVwreckage
p73
aVscooter
p74
aVblast
p75
aVsite
p76
aVsaid
p77
aVarrests
p78
aVmade
p79
aVfar
p80
aVadded
p81
aVThough
p82
aVrebel
p83
aVgroup
p84
aVclaimed
p85
aVresponsibility
p86
aVblasts
p87
aVManipur
p88
aVPolice
p89
aVintelligence
p90
aVofficials
p91
aVsaid
p92
aVblasts
p93
aVcarried
p94
aVrebels
p95
aVyouth
p96
aVkilled
p97
aVvillage
p98
aV's
p99
aVdistrict
p100
aVbomb
p101
aVsuspected
p102
aVplanted
p103
aVmilitants
p104
aVwent
p105
aVhouse
p106
aV20
p107
aVrebel
p108
aVoutfits
p109
aVManipur
p110
aVdemands
p111
aVranging
p112
aVsecession
p113
aVgreater
p114
aVautonomy
p115
aVBlast
p116
aVtwo
p117
aVtroopers
p118
aVinjured
p119
asS'ORG'
p120
(lp121
sS'OT'
p122
(lp123
VThe
p124
ag31
ag32
ag33
ag34
aVwere
p125
aVon
p126
ag35
ag36
aVon
p127
aVwhen
p128
aVthe
p129
ag37
ag38
aVthem
p130
aVin
p131
aVthe
p132
ag39
ag40
aV,
p133
aVa
p134
aVfew
p135
ag41
aVfrom
p136
aVthe
p137
ag42
ag43
ag44
aV.
p138
aVTheir
p139
ag45
aVis
p140
ag46
aVto
p141
aVbe
p142
ag47
aV,
p143
aVan
p144
ag48
ag49
ag50
ag51
aV.
p145
aV.
p146
aV.
p147
aVA
p148
ag52
ag53
aVhas
p149
aVbeen
p150
ag54
aVand
p151
ag55
aVhas
p152
aVbeen
p153
ag56
aVoff
p154
aV,
p155
ag57
ag58
ag59
ag60
ag61
aV.
p156
aVHe
p157
ag62
ag63
ag64
ag65
aVthat
p158
aVthe
p159
ag66
ag67
aVhave
p160
aVbeen
p161
ag68
aVby
p162
aVan
p163
ag69
ag70
ag71
aV.
p164
aV``
p165
aVWe
p166
aVhave
p167
ag72
aVthe
p168
ag73
aVof
p169
aVa
p170
ag74
aVfrom
p171
aVthe
p172
ag75
ag76
aV,
p173
aV''
p174
aVhe
p175
ag77
aV.
p176
aV.
p177
aV.
p178
aVNo
p179
ag78
aVhad
p180
aVbeen
p181
ag79
aVso
p182
ag80
aV,
p183
aVhe
p184
ag81
aV.
p185
aV.
p186
aV.
p187
ag82
aVno
p188
ag83
ag84
aVhas
p189
ag85
ag86
aVfor
p190
aVthe
p191
ag87
aV,
p192
ag88
ag89
aVand
p193
ag90
ag91
ag92
aVthe
p194
ag93
aVwere
p195
ag94
aVout
p196
aVby
p197
ag95
aV.
p198
aV.
p199
aV.
p200
aVOn
p201
aV,
p202
aVa
p203
ag96
aVwas
p204
ag97
aVin
p205
aVa
p206
ag98
aVof
p207
ag99
ag100
aVafter
p208
aVa
p209
ag101
aV,
p210
ag102
aVto
p211
aVhave
p212
aVbeen
p213
ag103
aVby
p214
ag104
aV,
p215
ag105
aVoff
p216
aVat
p217
aVhis
p218
ag106
aV.
p219
aV.
p220
aV.
p221
aVThere
p222
aVare
p223
aVmore
p224
aVthan
p225
ag107
ag108
ag109
aVin
p226
ag110
aVwith
p227
ag111
ag112
aVfrom
p228
ag113
aVto
p229
ag114
ag115
aV.
p230
aV.
p231
aV.
p232
ag116
aVin
p233
aV,
p234
ag117
ag118
ag119
aV.
p235
asS'ONS'
p236
(lp237
g31
ag32
ag33
ag34
ag35
asssS'ev_008_st_003.html'
p238
(dp239
S'TITLE'
p240
S'Manipur explosion injures two policemen'
p241
sS'CONTENT'
p242
S"Two paramilitary policemen have been injured in a blast in Imphal, the capital of India's troubled north-eastern Manipur state. .\n\n. The Assam Rifles personnel were on a patrol in Keishampet locality when explosives placed in a two-wheeler scooter went off, police said. .\n\n. Reports said the condition of one of the injured policemen was serious. .\n\n. The state of Manipur borders Burma and has many separatist groups fighting for independence from India. .\n\n. But, it was not known which of the groups was behind the explosion. .\n\n. Keishampet is known to be a stronghold of the separatist group Peoples' Liberation Army (PLA) of Manipur and is known to be close to India's Maoist rebels. .\n\n. "
p243
sS'LINK'
p244
S'http://www.bbc.com/news/world-asia-india-19486172'
p245
sS'LOCATION'
p246
NsS'TIME'
p247
F0.7729663394109397
sg12
(dp248
g14
(lp249
VImphal
p250
aVBurma
p251
aVIndia
p252
aVIndia
p253
asg20
(lp254
sg23
(lp255
sg27
(lp256
sg29
(lp257
VTwo
p258
aVparamilitary
p259
aVpolicemen
p260
aVinjured
p261
aVblast
p262
aVcapital
p263
aVIndia
p264
aV's
p265
aVtroubled
p266
aVnorth-eastern
p267
aVManipur
p268
aVstate
p269
aVAssam
p270
aVRifles
p271
aVpersonnel
p272
aVpatrol
p273
aVKeishampet
p274
aVlocality
p275
aVexplosives
p276
aVplaced
p277
aVtwo-wheeler
p278
aVscooter
p279
aVwent
p280
aVpolice
p281
aVsaid
p282
aVReports
p283
aVsaid
p284
aVcondition
p285
aVone
p286
aVinjured
p287
aVpolicemen
p288
aVserious
p289
aVstate
p290
aVManipur
p291
aVborders
p292
aVmany
p293
aVseparatist
p294
aVgroups
p295
aVfighting
p296
aVindependence
p297
aVknown
p298
aVgroups
p299
aVbehind
p300
aVexplosion
p301
aVKeishampet
p302
aVknown
p303
aVstronghold
p304
aVseparatist
p305
aVgroup
p306
aVPeoples
p307
aVLiberation
p308
aVArmy
p309
aVPLA
p310
aVManipur
p311
aVknown
p312
aVclose
p313
aV's
p314
aVMaoist
p315
aVrebels
p316
aVManipur
p317
aVexplosion
p318
aVinjures
p319
aVtwo
p320
aVpolicemen
p321
asg120
(lp322
sg122
(lp323
g258
ag259
ag260
aVhave
p324
aVbeen
p325
ag261
aVin
p326
aVa
p327
ag262
aVin
p328
aV,
p329
aVthe
p330
ag263
aVof
p331
ag264
ag265
ag266
ag267
ag268
ag269
aV.
p332
aV.
p333
aV.
p334
aVThe
p335
ag270
ag271
ag272
aVwere
p336
aVon
p337
aVa
p338
ag273
aVin
p339
ag274
ag275
aVwhen
p340
ag276
ag277
aVin
p341
aVa
p342
ag278
ag279
ag280
aVoff
p343
aV,
p344
ag281
ag282
aV.
p345
aV.
p346
aV.
p347
ag283
ag284
aVthe
p348
ag285
aVof
p349
ag286
aVof
p350
aVthe
p351
ag287
ag288
aVwas
p352
ag289
aV.
p353
aV.
p354
aV.
p355
aVThe
p356
ag290
aVof
p357
ag291
ag292
aVand
p358
aVhas
p359
ag293
ag294
ag295
ag296
aVfor
p360
ag297
aVfrom
p361
aV.
p362
aV.
p363
aV.
p364
aVBut
p365
aV,
p366
aVit
p367
aVwas
p368
aVnot
p369
ag298
aVwhich
p370
aVof
p371
aVthe
p372
ag299
aVwas
p373
ag300
aVthe
p374
ag301
aV.
p375
aV.
p376
aV.
p377
ag302
aVis
p378
ag303
aVto
p379
aVbe
p380
aVa
p381
ag304
aVof
p382
aVthe
p383
ag305
ag306
ag307
aV'
p384
ag308
ag309
aV-LRB-
p385
ag310
aV-RRB-
p386
aVof
p387
ag311
aVand
p388
aVis
p389
ag312
aVto
p390
aVbe
p391
ag313
aVto
p392
ag314
ag315
ag316
aV.
p393
aV.
p394
aV.
p395
ag317
ag318
ag319
ag320
ag321
aV.
p396
asg236
(lp397
g258
ag259
ag260
ag261
ag262
asssS'ev_001_st_004.html'
p398
(dp399
S'TITLE'
p400
S'13 injured in bomb blast in Guwahati'
p401
sS'CONTENT'
p402
S"GUWAHATI: Thirteen persons were injured, three of them seriously, in a powerful bomb explosion by ULFA in Lower Assam's Bongaigaon district on Monday morning, police said. .\n\n. The Programmable Time Device (PTD) was kept concealed inside a bicycle in Bongaigaon town's Paglathan Bazar. .\n\n. The bomb went off at 9.30 am when the area near rail gate was busy with shoppers creating chaos. People ran in panic and shop keepers downed their shutters. .\n\n. The area has been cordened off, police said, adding the injured had been admitted to hospital where the condition of three was stated to be serious. .\n\n. On Friday, the ULFA triggered a powerful blast at Fancy Bazar in Guwahati, targetting Hindi-speaking businessmen and injuring five persons. .\n\n. A terror attack was averted on Sunday with the recovery of a bomb containing one kilogram of RDX near the main fish market of Assam's Jorhat district"
p403
sS'LINK'
p404
S'http://www.dnaindia.com/india/report-13-injured-in-bomb-blast-in-guwahati-1098184'
p405
sS'LOCATION'
p406
VGUWAHATI
p407
sS'TIME'
p408
F0.43390603085553997
sg12
(dp409
g14
(lp410
VGUWAHATI
p411
aVAssam
p412
aVBongaigaon
p413
aVBongaigaon
p414
aVPaglathan Bazar
p415
aVGuwahati
p416
aVAssam
p417
aVGuwahati
p418
asg20
(lp419
sg23
(lp420
VMonday
p421
aVFriday
p422
aVSunday
p423
asg27
(lp424
sg29
(lp425
VThirteen
p426
aVpersons
p427
aVinjured
p428
aVthree
p429
aVseriously
p430
aVpowerful
p431
aVbomb
p432
aVexplosion
p433
aVLower
p434
aV's
p435
aVdistrict
p436
aVmorning
p437
aVpolice
p438
aVsaid
p439
aVProgrammable
p440
aVTime
p441
aVDevice
p442
aVPTD
p443
aVkept
p444
aVconcealed
p445
aVinside
p446
aVbicycle
p447
aVtown
p448
aV's
p449
aVbomb
p450
aVwent
p451
aV9.30
p452
aVarea
p453
aVnear
p454
aVrail
p455
aVgate
p456
aVbusy
p457
aVshoppers
p458
aVcreating
p459
aVchaos
p460
aVPeople
p461
aVran
p462
aVpanic
p463
aVshop
p464
aVkeepers
p465
aVdowned
p466
aVshutters
p467
aVarea
p468
aVcordened
p469
aVpolice
p470
aVsaid
p471
aVadding
p472
aVinjured
p473
aVadmitted
p474
aVhospital
p475
aVcondition
p476
aVthree
p477
aVstated
p478
aVserious
p479
aVULFA
p480
aVtriggered
p481
aVpowerful
p482
aVblast
p483
aVFancy
p484
aVBazar
p485
aVtargetting
p486
aVHindi-speaking
p487
aVbusinessmen
p488
aVinjuring
p489
aVfive
p490
aVpersons
p491
aVterror
p492
aVattack
p493
aVaverted
p494
aVrecovery
p495
aVbomb
p496
aVcontaining
p497
aVone
p498
aVkilogram
p499
aVRDX
p500
aVnear
p501
aVmain
p502
aVfish
p503
aVmarket
p504
aV's
p505
aVJorhat
p506
aVdistrict13
p507
aVinjured
p508
aVbomb
p509
aVblast
p510
asg120
(lp511
VULFA
p512
asg122
(lp513
V
p514
ag426
ag427
aVwere
p515
ag428
aV,
p516
ag429
aVof
p517
aVthem
p518
ag430
aV,
p519
aVin
p520
aVa
p521
ag431
ag432
ag433
aVby
p522
aVin
p523
ag434
ag435
ag436
aVon
p524
ag437
aV,
p525
ag438
ag439
aV.
p526
aV.
p527
aV.
p528
aVThe
p529
ag440
ag441
ag442
aV-LRB-
p530
ag443
aV-RRB-
p531
aVwas
p532
ag444
ag445
ag446
aVa
p533
ag447
aVin
p534
ag448
ag449
aV.
p535
aV.
p536
aV.
p537
aVThe
p538
ag450
ag451
aVoff
p539
aVat
p540
ag452
aVam
p541
aVwhen
p542
aVthe
p543
ag453
ag454
ag455
ag456
aVwas
p544
ag457
aVwith
p545
ag458
ag459
ag460
aV.
p546
ag461
ag462
aVin
p547
ag463
aVand
p548
ag464
ag465
ag466
aVtheir
p549
ag467
aV.
p550
aV.
p551
aV.
p552
aVThe
p553
ag468
aVhas
p554
aVbeen
p555
ag469
aVoff
p556
aV,
p557
ag470
ag471
aV,
p558
ag472
aVthe
p559
ag473
aVhad
p560
aVbeen
p561
ag474
aVto
p562
ag475
aVwhere
p563
aVthe
p564
ag476
aVof
p565
ag477
aVwas
p566
ag478
aVto
p567
aVbe
p568
ag479
aV.
p569
aV.
p570
aV.
p571
aVOn
p572
aV,
p573
aVthe
p574
ag480
ag481
aVa
p575
ag482
ag483
aVat
p576
ag484
ag485
aVin
p577
aV,
p578
ag486
ag487
ag488
aVand
p579
ag489
ag490
ag491
aV.
p580
aV.
p581
aV.
p582
aVA
p583
ag492
ag493
aVwas
p584
ag494
aVon
p585
aVwith
p586
aVthe
p587
ag495
aVof
p588
aVa
p589
ag496
ag497
ag498
ag499
aVof
p590
ag500
ag501
aVthe
p591
ag502
ag503
ag504
aVof
p592
ag505
ag506
ag507
ag508
aVin
p593
ag509
ag510
aVin
p594
aV.
p595
asg236
(lp596
g426
ag427
ag428
ag429
ag430
asssS'ev_001_st_001.html'
p597
(dp598
S'TITLE'
p599
S'15 hurt in blast'
p600
sS'CONTENT'
p601
S"Special Correspondent .\n\n. Guwahati: Fifteen persons, including four school children, were injured in a bomb blast suspected to have been triggered by the United Liberation Front of Asom (ULFA) in lower Assam's Bongaigaon town on Monday morning. .\n\n. Police said the blast occurred near the office of the Superintendent of Police around 9:25 a.m. The bomb was planted in a bicycle"
p602
sS'LINK'
p603
S'http://www.thehindu.com/todays-paper/tp-national/15-hurt-in-blast/article1845550.ece'
p604
sS'LOCATION'
p605
VGuwahati:
p606
sS'TIME'
p607
F0.4340813464235624
sg12
(dp608
g14
(lp609
VGuwahati
p610
aVAssam
p611
aVBongaigaon
p612
asg20
(lp613
sg23
(lp614
VMonday
p615
asg27
(lp616
V9
p617
asg29
(lp618
VSpecial
p619
aVCorrespondent
p620
aVFifteen
p621
aVpersons
p622
aVincluding
p623
aVfour
p624
aVschool
p625
aVchildren
p626
aVinjured
p627
aVbomb
p628
aVblast
p629
aVsuspected
p630
aVtriggered
p631
aVAsom
p632
aVlower
p633
aV's
p634
aVtown
p635
aVmorning
p636
aVPolice
p637
aVsaid
p638
aVblast
p639
aVoccurred
p640
aVnear
p641
aVoffice
p642
aVSuperintendent
p643
aVPolice
p644
aVaround
p645
aVbomb
p646
aVplanted
p647
aVbicycle15
p648
aVhurt
p649
aVblast
p650
asg120
(lp651
VUnited Liberation Front
p652
aVULFA
p653
asg122
(lp654
g619
ag620
aV.
p655
aV.
p656
ag514
ag621
ag622
aV,
p657
ag623
ag624
ag625
ag626
aV,
p658
aVwere
p659
ag627
aVin
p660
aVa
p661
ag628
ag629
ag630
aVto
p662
aVhave
p663
aVbeen
p664
ag631
aVby
p665
aVthe
p666
aVof
p667
ag632
aV-LRB-
p668
aV-RRB-
p669
aVin
p670
ag633
ag634
ag635
aVon
p671
ag636
aV.
p672
aV.
p673
aV.
p674
ag637
ag638
aVthe
p675
ag639
ag640
ag641
aVthe
p676
ag642
aVof
p677
aVthe
p678
ag643
aVof
p679
ag644
ag645
aV.
p680
aVThe
p681
ag646
aVwas
p682
ag647
aVin
p683
aVa
p684
ag648
ag649
aVin
p685
ag650
aV.
p686
asg236
(lp687
g619
ag620
ag621
ag622
ag623
asssS'ev_001_st_008.html'
p688
(dp689
S'TITLE'
p690
S'13 injured in ULFA bomb blast in Assam'
p691
sS'CONTENT'
p692
S"Thirteen persons were injured, three of them seriously, in a powerful bomb explosion by ULFA in Lower Assam's Bongaigaon district this morning, police said. .\n\n. The Programmable Time Device (PTD) was kept concealed inside a bicycle in Bongaigaon town's Paglathan Bazar. .\n\n. The bomb went off at 9.30 am. When the area near rail gate was busy with shoppers creating chaos. People ran in panic and shop keepers downed their shutters. .\n\n. The area has been cordened off, police said, adding the injured had been admitted to hospital where the condition of three was stated to be serious. .\n\n. On Friday, the ULFA triggered a powerful blast at Fancy Bazar in Guwahati, targetting Hindi-speaking businessmen and injuring five persons. .\n\n. A terror attack was averted on Sunday with the recovery of a bomb containing one kilogram of RDX near the main fish market of Assam's Jorhat district. .\n\n. "
p693
sS'LINK'
p694
S'http://www.hindustantimes.com/india/13-injured-in-ulfa-bomb-blast-in-assam/story-K8n5g30JEsekLXNf7FHKmK.html'
p695
sS'LOCATION'
p696
V Guwahati
p697
sS'TIME'
p698
F0.43390603085553997
sg12
(dp699
g14
(lp700
VAssam
p701
aVBongaigaon
p702
aVBongaigaon
p703
aVPaglathan Bazar
p704
aVGuwahati
p705
aVAssam
p706
aVJorhat
p707
aVAssam
p708
asg20
(lp709
sg23
(lp710
VFriday
p711
aVSunday
p712
asg27
(lp713
sg29
(lp714
VThirteen
p715
aVpersons
p716
aVinjured
p717
aVthree
p718
aVseriously
p719
aVpowerful
p720
aVbomb
p721
aVexplosion
p722
aVLower
p723
aV's
p724
aVdistrict
p725
aVmorning
p726
aVpolice
p727
aVsaid
p728
aVProgrammable
p729
aVTime
p730
aVDevice
p731
aVPTD
p732
aVkept
p733
aVconcealed
p734
aVinside
p735
aVbicycle
p736
aVtown
p737
aV's
p738
aVbomb
p739
aVwent
p740
aV9.30
p741
aVarea
p742
aVnear
p743
aVrail
p744
aVgate
p745
aVbusy
p746
aVshoppers
p747
aVcreating
p748
aVchaos
p749
aVPeople
p750
aVran
p751
aVpanic
p752
aVshop
p753
aVkeepers
p754
aVdowned
p755
aVshutters
p756
aVarea
p757
aVcordened
p758
aVpolice
p759
aVsaid
p760
aVadding
p761
aVinjured
p762
aVadmitted
p763
aVhospital
p764
aVcondition
p765
aVthree
p766
aVstated
p767
aVserious
p768
aVULFA
p769
aVtriggered
p770
aVpowerful
p771
aVblast
p772
aVFancy
p773
aVBazar
p774
aVtargetting
p775
aVHindi-speaking
p776
aVbusinessmen
p777
aVinjuring
p778
aVfive
p779
aVpersons
p780
aVterror
p781
aVattack
p782
aVaverted
p783
aVrecovery
p784
aVbomb
p785
aVcontaining
p786
aVone
p787
aVkilogram
p788
aVRDX
p789
aVnear
p790
aVmain
p791
aVfish
p792
aVmarket
p793
aV's
p794
aVdistrict
p795
aV.13
p796
aVinjured
p797
aVULFA
p798
aVbomb
p799
aVblast
p800
asg120
(lp801
VULFA
p802
asg122
(lp803
g715
ag716
aVwere
p804
ag717
aV,
p805
ag718
aVof
p806
aVthem
p807
ag719
aV,
p808
aVin
p809
aVa
p810
ag720
ag721
ag722
aVby
p811
aVin
p812
ag723
ag724
ag725
aVthis
p813
ag726
aV,
p814
ag727
ag728
aV.
p815
aV.
p816
aV.
p817
aVThe
p818
ag729
ag730
ag731
aV-LRB-
p819
ag732
aV-RRB-
p820
aVwas
p821
ag733
ag734
ag735
aVa
p822
ag736
aVin
p823
ag737
ag738
aV.
p824
aV.
p825
aV.
p826
aVThe
p827
ag739
ag740
aVoff
p828
aVat
p829
ag741
aVam
p830
aV.
p831
aVWhen
p832
aVthe
p833
ag742
ag743
ag744
ag745
aVwas
p834
ag746
aVwith
p835
ag747
ag748
ag749
aV.
p836
ag750
ag751
aVin
p837
ag752
aVand
p838
ag753
ag754
ag755
aVtheir
p839
ag756
aV.
p840
aV.
p841
aV.
p842
aVThe
p843
ag757
aVhas
p844
aVbeen
p845
ag758
aVoff
p846
aV,
p847
ag759
ag760
aV,
p848
ag761
aVthe
p849
ag762
aVhad
p850
aVbeen
p851
ag763
aVto
p852
ag764
aVwhere
p853
aVthe
p854
ag765
aVof
p855
ag766
aVwas
p856
ag767
aVto
p857
aVbe
p858
ag768
aV.
p859
aV.
p860
aV.
p861
aVOn
p862
aV,
p863
aVthe
p864
ag769
ag770
aVa
p865
ag771
ag772
aVat
p866
ag773
ag774
aVin
p867
aV,
p868
ag775
ag776
ag777
aVand
p869
ag778
ag779
ag780
aV.
p870
aV.
p871
aV.
p872
aVA
p873
ag781
ag782
aVwas
p874
ag783
aVon
p875
aVwith
p876
aVthe
p877
ag784
aVof
p878
aVa
p879
ag785
ag786
ag787
ag788
aVof
p880
ag789
ag790
aVthe
p881
ag791
ag792
ag793
aVof
p882
ag794
ag795
aV.
p883
aV.
p884
ag796
ag797
aVin
p885
ag798
ag799
ag800
aVin
p886
aV.
p887
asg236
(lp888
g715
ag716
ag717
ag718
ag719
asss.